
lib/Debug/AdvionObjects.dll:	file format coff-x86-64
architecture: x86_64
start address: 0x0000000000000000
Characteristics 0x2022
	executable
	large address aware
	DLL

Time/Date               Wed Dec  4 16:52:41 2019
Magic                   020b	(PE32+)
MajorLinkerVersion      14
MinorLinkerVersion      0
SizeOfCode              0000000000169400
SizeOfInitializedData   0000000000125800
SizeOfUninitializedData 0000000000000000
AddressOfEntryPoint     0000000000144140
BaseOfCode              0000000000001000
ImageBase               0000000180000000
SectionAlignment        00001000
FileAlignment           00000200
MajorOSystemVersion     6
MinorOSystemVersion     0
MajorImageVersion       0
MinorImageVersion       0
MajorSubsystemVersion   6
MinorSubsystemVersion   0
Win32Version            00000000
SizeOfImage             00298000
SizeOfHeaders           00000400
CheckSum                00000000
Subsystem               00000002	(Windows GUI)
DllCharacteristics      00000160
					HIGH_ENTROPY_VA
					DYNAMIC_BASE
					NX_COMPAT
SizeOfStackReserve      0000000000100000
SizeOfStackCommit       0000000000001000
SizeOfHeapReserve       0000000000100000
SizeOfHeapCommit        0000000000001000
LoaderFlags             00000000
NumberOfRvaAndSizes     00000010

The Data Directory
Entry 0 0000000000208e60 0004cb90 Export Directory [.edata (or where ever we found it)]
Entry 1 00000000002559f0 00000078 Import Directory [parts of .idata]
Entry 2 0000000000293000 0000050c Resource Directory [.rsrc]
Entry 3 0000000000266000 0002b1d0 Exception Directory [.pdata]
Entry 4 0000000000000000 00000000 Security Directory
Entry 5 0000000000294000 00003088 Base Relocation Directory [.reloc]
Entry 6 00000000001c2ad0 00000054 Debug Directory
Entry 7 0000000000000000 00000000 Description Directory
Entry 8 0000000000000000 00000000 Special Directory
Entry 9 0000000000000000 00000000 Thread Storage Directory [.tls]
Entry a 00000000001c2b30 00000094 Load Configuration Directory
Entry b 0000000000000000 00000000 Bound Import Directory
Entry c 000000000016b000 00000750 Import Address Table Directory
Entry d 0000000000000000 00000000 Delay Import Directory
Entry e 0000000000000000 00000000 CLR Runtime Header
Entry f 0000000000000000 00000000 Reserved

The Import Tables:
  lookup 00255dd0 time 00000000 fwd 00000000 name 0025767e addr 0016b368

    DLL Name: lmx-MDd-vc14.dll
    Hint/Ord  Name
         307  ?conditionally_write_ns_attrs@c_xml_writer@lmx@@QEAAX_N@Z
         306  ?conditionally_select_ns_map@c_xml_writer@lmx@@QEAAXPEBUs_ns_map@2@@Z
         369  ?get_debug_error@c_xml_writer@lmx@@QEBAAEBUs_debug_error@2@XZ
         124  ??1c_xml_writer@lmx@@UEAA@XZ
          85  ??0c_xml_writer@lmx@@QEAA@AEAV?$basic_ostream@DU?$char_traits@D@std@@@std@@HPEBD111@Z
         361  ?get_convenience_options@c_xml_writer@lmx@@SAHXZ
         125  ??1c_xml_writer_local@lmx@@QEAA@XZ
          87  ??0c_xml_writer_local@lmx@@QEAA@AEAVc_xml_writer@1@@Z
         764  ?unmarshal_complex_content@c_unmarshal_helper@lmx@@QEAA?AW4elmx_error@2@QEBDH@Z
         768  ?unmarshal_empty_content@c_unmarshal_helper@lmx@@QEAA?AW4elmx_error@2@QEBDH@Z
         630  ?set_body_can_be_empty@c_unmarshal_helper@lmx@@QEAAXXZ
         116  ??1c_unmarshal_helper@lmx@@UEAA@XZ
          71  ??0c_unmarshal_helper@lmx@@QEAA@AEAVc_xml_reader@1@@Z
         738  ?start_element@c_xml_writer@lmx@@QEAAXQEBD@Z
          83  ??0c_xml_reader_memory@lmx@@QEAA@AEBV?$basic_string@DU?$char_traits@D@std@@V?$allocator@D@2@@std@@@Z
          84  ??0c_xml_reader_memory@lmx@@QEAA@PEBD_K@Z
         540  ?is_open@c_xml_reader_file@lmx@@QEBA_NXZ
         121  ??1c_xml_reader_file@lmx@@UEAA@XZ
          80  ??0c_xml_reader_file@lmx@@QEAA@PEB_W@Z
          79  ??0c_xml_reader_file@lmx@@QEAA@PEBD@Z
         761  ?unmarshal_child_element_impl@c_xml_reader@lmx@@QEAA?AW4elmx_error@2@AEAVc_untyped_unmarshal_bridge@2@AEBVc_untyped_validation_spec@2@PEBUs_event_map@2@@Z
         759  ?unmarshal_attribute_value_impl@c_xml_reader@lmx@@QEAA?AW4elmx_error@2@AEAVc_untyped_unmarshal_bridge@2@AEBVc_untyped_validation_spec@2@@Z
         632  ?set_code_line@c_xml_reader@lmx@@QEAAXH@Z
         631  ?set_code_file@c_xml_reader@lmx@@QEAAXPEBD@Z
         391  ?get_element_value@c_xml_reader@lmx@@QEAA_NPEAV?$basic_string@DU?$char_traits@D@std@@V?$allocator@D@2@@std@@W4elmx_whitespace@2@@Z
         362  ?get_current_event@c_xml_reader@lmx@@QEBAHXZ
         434  ?get_known_element_event@c_xml_reader@lmx@@QEAAXQEBUs_event_map@2@PEAW4elmx_error@2@@Z
         381  ?get_element_event@c_xml_reader@lmx@@QEAAXPEAW4elmx_error@2@@Z
         315  ?end_element@c_xml_writer@lmx@@QEAAXQEBD@Z
         582  ?marshal_attribute_or_default_impl@c_xml_writer@lmx@@QEAAXQEBDAEAVc_untyped_marshal_bridge@2@AEBVc_untyped_validation_spec@2@@Z
         585  ?marshal_element_impl@c_xml_writer@lmx@@QEAAXQEBDAEAVc_untyped_marshal_bridge@2@PEBUs_ns_map@2@@Z
         588  ?marshal_element_or_default_impl@c_xml_writer@lmx@@QEAAXQEBDAEAVc_untyped_marshal_bridge@2@AEBVc_untyped_validation_spec@2@@Z
         407  ?get_expected_class_identity@c_xml_writer@lmx@@QEBAPEBDXZ
         646  ?set_expected_class_identity@c_xml_writer@lmx@@QEAAXPEBD@Z
         302  ?clear_expected_class_identity@c_xml_writer@lmx@@QEAAXXZ
         535  ?is_nil@c_unmarshal_helper@lmx@@EEBA_NXZ
         536  ?is_not_choice_or_choice_is_not_set@c_unmarshal_helper@lmx@@EEBA_NXZ
         770  ?unmarshal_simple_body@c_unmarshal_helper@lmx@@EEAA_NPEAW4elmx_error@2@@Z
         509  ?global_check_exception@lmx@@3Vc_check_exception@1@A
         512  ?handle_error@c_xml_reader@lmx@@QEAA?AW4elmx_error@2@W432@AEBV?$basic_string@DU?$char_traits@D@std@@V?$allocator@D@2@@std@@PEBDH@Z
         579  ?marshal_attribute_impl@c_xml_writer@lmx@@QEAAXQEBDAEAVc_untyped_marshal_bridge@2@@Z
         518  ?include_xml_decl@c_xml_writer@lmx@@2HB
         123  ??1c_xml_reader_memory@lmx@@UEAA@XZ
         554  ?is_valid_bool@lmx@@YA_NAEBV?$basic_string@DU?$char_traits@D@std@@V?$allocator@D@2@@std@@@Z
         555  ?is_valid_float@lmx@@YA_NAEBV?$basic_string@DU?$char_traits@D@std@@V?$allocator@D@2@@std@@@Z
         557  ?is_valid_integer@lmx@@YA_NAEBV?$basic_string@DU?$char_traits@D@std@@V?$allocator@D@2@@std@@@Z
           3  ??0c_big_int@lmx@@QEAA@PEBD@Z
          90  ??1c_big_int@lmx@@QEAA@XZ
         252  ??Plmx@@YA_NAEBV?$basic_string@DU?$char_traits@D@std@@V?$allocator@D@2@@std@@AEBVc_big_int@0@@Z
         222  ??Nlmx@@YA_NAEBV?$basic_string@DU?$char_traits@D@std@@V?$allocator@D@2@@std@@AEBVc_big_int@0@@Z
         599  ?output_convert_to_xml@lmx@@YAAEAV?$basic_ostream@DU?$char_traits@D@std@@@std@@AEAV23@AEBV?$basic_string@_WU?$char_traits@_W@std@@V?$allocator@_W@2@@3@@Z
         602  ?output_convert_to_xml@lmx@@YAAEAV?$basic_ostream@DU?$char_traits@D@std@@@std@@AEAV23@_N@Z
         601  ?output_convert_to_xml@lmx@@YAAEAV?$basic_ostream@DU?$char_traits@D@std@@@std@@AEAV23@N@Z
         784  ?vtostring@lmx@@YAAEAV?$basic_string@_WU?$char_traits@_W@std@@V?$allocator@_W@2@@std@@AEAV23@AEBV?$basic_string@DU?$char_traits@D@std@@V?$allocator@D@2@@3@@Z
         329  ?float_zero@lmx@@YANXZ
          72  ??0c_untyped_validation_spec@lmx@@QEAA@W4elmx_whitespace@1@AEBV?$basic_string@DU?$char_traits@D@std@@V?$allocator@D@2@@std@@Q6A?AW4elmx_error@1@AEAVc_xml_reader@1@1@Z@Z
         500  ?get_whitespace_handling@c_untyped_validation_spec@lmx@@QEBA?AW4elmx_whitespace@2@XZ
          81  ??0c_xml_reader_local@lmx@@QEAA@PEAVc_xml_reader@1@@Z
         122  ??1c_xml_reader_local@lmx@@QEAA@XZ
          52  ??0c_known_elements_selector@lmx@@QEAA@AEAVc_xml_reader@1@PEBUs_known_elements@1@@Z
         109  ??1c_known_elements_selector@lmx@@QEAA@XZ
         629  ?set_auto_versioning@c_xml_reader@lmx@@QEAAX_N@Z
         282  ?add_namespace_mapping@c_xml_reader@lmx@@QEAAXAEBV?$basic_string@DU?$char_traits@D@std@@V?$allocator@D@2@@std@@0@Z
         513  ?handle_error@c_xml_reader@lmx@@QEAA?AW4elmx_error@2@W432@H@Z
         511  ?handle_error@c_xml_reader@lmx@@QEAA?AW4elmx_error@2@W432@@Z
         368  ?get_debug_error@c_xml_reader@lmx@@QEBAAEBUs_debug_error@2@XZ
         677  ?set_ns_map@c_xml_reader@lmx@@QEAAXPEBUs_ns_map@2@@Z
         388  ?get_element_ns_id@c_xml_reader@lmx@@QEBAHXZ
         444  ?get_local_name@c_xml_reader@lmx@@QEBAAEBV?$basic_string@DU?$char_traits@D@std@@V?$allocator@D@2@@std@@XZ
         748  ?tokenise@c_xml_reader@lmx@@QEAAXQEBUs_event_map@2@W4elxp_attr_elem@2@@Z
         503  ?get_xsi_type@c_xml_reader@lmx@@QEAA_NPEAHPEAV?$basic_string@DU?$char_traits@D@std@@V?$allocator@D@2@@std@@@Z

  lookup 00255b48 time 00000000 fwd 00000000 name 002585ac addr 0016b0e0

    DLL Name: MSVCP140D.dll
    Hint/Ord  Name
         977  ?id@?$codecvt@DDU_Mbstatet@@@std@@2V0locale@2@A
         412  ?_BADOFF@std@@3_JB
        1358  ?xsputn@?$basic_streambuf@DU?$char_traits@D@std@@@std@@MEAA_JPEBD_J@Z
        1355  ?xsgetn@?$basic_streambuf@DU?$char_traits@D@std@@@std@@MEAA_JPEAD_J@Z
        1315  ?uflow@?$basic_streambuf@DU?$char_traits@D@std@@@std@@MEAAHXZ
        1285  ?sync@?$basic_streambuf@DU?$char_traits@D@std@@@std@@MEAAHXZ
        1245  ?showmanyc@?$basic_streambuf@DU?$char_traits@D@std@@@std@@MEAA_JXZ
        1213  ?setbuf@?$basic_streambuf@DU?$char_traits@D@std@@@std@@MEAAPEAV12@PEAD_J@Z
        1022  ?imbue@?$basic_streambuf@DU?$char_traits@D@std@@@std@@MEAAXAEBVlocale@2@@Z
         647  ?_Unlock@?$basic_streambuf@DU?$char_traits@D@std@@@std@@UEAAXXZ
         560  ?_Lock@?$basic_streambuf@DU?$char_traits@D@std@@@std@@UEAAXXZ
         437  ?_Fiopen@std@@YAPEAU_iobuf@@PEB_WHH@Z
         435  ?_Fiopen@std@@YAPEAU_iobuf@@PEBDHH@Z
         880  ?flush@?$basic_ostream@DU?$char_traits@D@std@@@std@@QEAAAEAV12@XZ
         262  ??6?$basic_ostream@DU?$char_traits@D@std@@@std@@QEAAAEAV01@I@Z
         261  ??6?$basic_ostream@DU?$char_traits@D@std@@@std@@QEAAAEAV01@H@Z
         588  ?_Osfx@?$basic_ostream@DU?$char_traits@D@std@@@std@@QEAAXXZ
         134  ??1?$basic_ostream@DU?$char_traits@D@std@@@std@@UEAA@XZ
          37  ??0?$basic_ostream@DU?$char_traits@D@std@@@std@@QEAA@PEAV?$basic_streambuf@DU?$char_traits@D@std@@@1@_N@Z
          12  ??0?$basic_ios@DU?$char_traits@D@std@@@std@@IEAA@XZ
         873  ?fill@?$basic_ios@DU?$char_traits@D@std@@@std@@QEBADXZ
        1167  ?rdbuf@?$basic_ios@DU?$char_traits@D@std@@@std@@QEBAPEAV?$basic_streambuf@DU?$char_traits@D@std@@@2@XZ
        1298  ?tie@?$basic_ios@DU?$char_traits@D@std@@@std@@QEBAPEAV?$basic_ostream@DU?$char_traits@D@std@@@2@XZ
        1229  ?setstate@?$basic_ios@DU?$char_traits@D@std@@@std@@QEAAXH_N@Z
         125  ??1?$basic_ios@DU?$char_traits@D@std@@@std@@UEAA@XZ
         508  ?_Init@?$basic_streambuf@DU?$char_traits@D@std@@@std@@IEAAXPEAPEAD0PEAH001@Z
         509  ?_Init@?$basic_streambuf@DU?$char_traits@D@std@@@std@@IEAAXXZ
         594  ?_Pninc@?$basic_streambuf@DU?$char_traits@D@std@@@std@@IEAAPEADXZ
        1222  ?setp@?$basic_streambuf@DU?$char_traits@D@std@@@std@@IEAAXPEAD00@Z
        1223  ?setp@?$basic_streambuf@DU?$char_traits@D@std@@@std@@IEAAXPEAD0@Z
        1097  ?pbump@?$basic_streambuf@DU?$char_traits@D@std@@@std@@IEAAXH@Z
         496  ?_Gninc@?$basic_streambuf@DU?$char_traits@D@std@@@std@@IEAAPEADXZ
         493  ?_Gndec@?$basic_streambuf@DU?$char_traits@D@std@@@std@@IEAAPEADXZ
         865  ?epptr@?$basic_streambuf@DU?$char_traits@D@std@@@std@@IEBAPEADXZ
        1218  ?setg@?$basic_streambuf@DU?$char_traits@D@std@@@std@@IEAAXPEAD00@Z
         883  ?gbump@?$basic_streambuf@DU?$char_traits@D@std@@@std@@IEAAXH@Z
         856  ?egptr@?$basic_streambuf@DU?$char_traits@D@std@@@std@@IEBAPEADXZ
        1103  ?pptr@?$basic_streambuf@DU?$char_traits@D@std@@@std@@IEBAPEADXZ
        1094  ?pbase@?$basic_streambuf@DU?$char_traits@D@std@@@std@@IEBAPEADXZ
         974  ?gptr@?$basic_streambuf@DU?$char_traits@D@std@@@std@@IEBAPEADXZ
         853  ?eback@?$basic_streambuf@DU?$char_traits@D@std@@@std@@IEBAPEADXZ
        1257  ?sputn@?$basic_streambuf@DU?$char_traits@D@std@@@std@@QEAA_JPEBD_J@Z
        1254  ?sputc@?$basic_streambuf@DU?$char_traits@D@std@@@std@@QEAAHD@Z
         109  ??0_Lockit@std@@QEAA@H@Z
         165  ??1_Lockit@std@@QEAA@XZ
        1318  ?uncaught_exception@std@@YA_NXZ
         421  ?_Debug_message@std@@YAXPEB_W0I@Z
         659  ?_Xbad_alloc@std@@YAXXZ
         662  ?_Xlength_error@std@@YAXPEBD@Z
         663  ?_Xout_of_range@std@@YAXPEBD@Z
         311  ??Bid@locale@std@@QEAA_KXZ
         477  ?_Getgloballocale@locale@std@@CAPEAV_Locimp@12@XZ
         677  ?always_noconv@codecvt_base@std@@QEBA_NXZ
        1026  ?in@?$codecvt@DDU_Mbstatet@@@std@@QEBAHAEAU_Mbstatet@@PEBD1AEAPEBDPEAD3AEAPEAD@Z
        1083  ?out@?$codecvt@DDU_Mbstatet@@@std@@QEBAHAEAU_Mbstatet@@PEBD1AEAPEBDPEAD3AEAPEAD@Z
        1327  ?unshift@?$codecvt@DDU_Mbstatet@@@std@@QEBAHAEAU_Mbstatet@@PEAD1AEAPEAD@Z
         441  ?_Getcat@?$codecvt@DDU_Mbstatet@@@std@@SA_KPEAPEBVfacet@locale@2@PEBV42@@Z
         973  ?good@ios_base@std@@QEBA_NXZ
         879  ?flags@ios_base@std@@QEBAHXZ
        1350  ?width@ios_base@std@@QEBA_JXZ
        1349  ?width@ios_base@std@@QEAA_J_J@Z
          47  ??0?$basic_streambuf@DU?$char_traits@D@std@@@std@@IEAA@XZ
         137  ??1?$basic_streambuf@DU?$char_traits@D@std@@@std@@UEAA@XZ
         968  ?getloc@?$basic_streambuf@DU?$char_traits@D@std@@@std@@QEBA?AVlocale@2@XZ

  lookup 00255d50 time 00000000 fwd 00000000 name 002586dc addr 0016b2e8

    DLL Name: VCRUNTIME140D.dll
    Hint/Ord  Name
          47  __vcrt_GetModuleHandleW
          46  __vcrt_GetModuleFileNameW
          37  __std_type_info_destroy_list
           8  __C_specific_handler
          14  __CxxFrameHandler3
           1  _CxxThrowException
          34  __std_exception_destroy
          33  __std_exception_copy
          64  strchr
          62  memset
          61  memmove
          60  memcpy
          59  memcmp
          54  _purecall
          49  __vcrt_LoadLibraryExW

  lookup 00256010 time 00000000 fwd 00000000 name 002589f4 addr 0016b5a8

    DLL Name: ucrtbased.dll
    Hint/Ord  Name
         109  __stdio_common_vswscanf
        1397  wcstok_s
        1332  strncpy
         285  _free_dbg
         517  _malloc_dbg
        1354  terminate
         161  _callnewh
         705  _seh_filter_dll
         182  _configure_narrow_argv
         369  _initialize_narrow_environment
         370  _initialize_onexit_table
         692  _register_onexit_function
         229  _execute_onexit_table
         194  _crt_atexit
         193  _crt_at_quick_exit
         164  _cexit
           4  _CrtDbgReport
         372  _initterm
         373  _initterm_e
         104  __stdio_common_vsprintf_s
         923  _wmakepath_s
         951  _wsplitpath_s
        1379  wcscpy_s
         839  _wcsdup
        1239  malloc
        1155  free
         833  _wassert
        1219  localeconv
           5  _CrtDbgReportW
        1328  strlen
        1322  strcpy
         825  _unlock_file
         499  _lock_file
        1370  ungetc
        1309  setvbuf
        1288  remove
        1162  fwrite
         288  _fseeki64
        1160  fsetpos
        1149  fputc
        1130  fgetpos
        1128  fflush
        1113  fclose
         324  _get_stream_buffer_pointers
         932  _wremove
        1345  strtoul
        1003  atoi
        1002  atof
         223  _errno
         375  _invalid_parameter_noinfo
         374  _invalid_parameter
        1129  fgetc

  lookup 00255a68 time 00000000 fwd 00000000 name 00258c36 addr 0016b000

    DLL Name: KERNEL32.dll
    Hint/Ord  Name
         676  GetProcAddress
         420  FreeLibrary
        1459  VirtualQuery
         681  GetProcessHeap
         828  HeapFree
         824  HeapAlloc
         598  GetLastError
         852  InitializeSListHead
         279  DisableThreadLibraryCalls
         733  GetSystemTimeAsFileTime
         532  GetCurrentThreadId
         528  GetCurrentProcessId
        1072  QueryPerformanceCounter
        1392  TerminateProcess
         527  GetCurrentProcess
        1501  WideCharToMultiByte
         980  MultiByteToWideChar
        1092  RaiseException
         621  GetModuleHandleW
         880  IsProcessorFeaturePresent
         709  GetStartupInfoW
        1362  SetUnhandledExceptionFilter
        1426  UnhandledExceptionFilter
         874  IsDebuggerPresent
        1212  RtlVirtualUnwind
        1205  RtlLookupFunctionEntry
        1198  RtlCaptureContext

Export Table:
 DLL name: AdvionObjects.dll
 Ordinal base: 1
 Ordinal      RVA  Name
       1  0x76290  ??0c_AdditionalInfo@AdvionObjects@@QEAA@AEBV01@@Z
       2  0x76210  ??0c_AdditionalInfo@AdvionObjects@@QEAA@XZ
       3  0x19190  ??0c_AdvionColumnOvenMethodType@AdvionLCObjects@@QEAA@AEBV01@@Z
       4  0x190c0  ??0c_AdvionColumnOvenMethodType@AdvionLCObjects@@QEAA@XZ
       5  0x172d0  ??0c_AdvionLCMethod@AdvionLCObjects@@QEAA@AEAVc_xml_reader@lmx@@PEAW4elmx_error@3@@Z
       6  0x17080  ??0c_AdvionLCMethod@AdvionLCObjects@@QEAA@AEBV01@@Z
       7  0x17580  ??0c_AdvionLCMethod@AdvionLCObjects@@QEAA@AEBV?$basic_string@DU?$char_traits@D@std@@V?$allocator@D@2@@std@@PEAW4elmx_error@lmx@@PEAUs_debug_error@5@@Z
       8  0x17650  ??0c_AdvionLCMethod@AdvionLCObjects@@QEAA@AEBVc_any_info@lmx@@PEAW4elmx_error@3@PEAUs_debug_error@3@@Z
       9  0x174d0  ??0c_AdvionLCMethod@AdvionLCObjects@@QEAA@PEBD_KPEAW4elmx_error@lmx@@PEAUs_debug_error@3@@Z
      10  0x17370  ??0c_AdvionLCMethod@AdvionLCObjects@@QEAA@QEBDPEAW4elmx_error@lmx@@PEAUs_debug_error@3@@Z
      11  0x17420  ??0c_AdvionLCMethod@AdvionLCObjects@@QEAA@QEB_WPEAW4elmx_error@lmx@@PEAUs_debug_error@3@@Z
      12  0x17010  ??0c_AdvionLCMethod@AdvionLCObjects@@QEAA@XZ
      13  0x15ec0  ??0c_AdvionLCMethodType@AdvionLCObjects@@QEAA@AEBV01@@Z
      14  0x15e20  ??0c_AdvionLCMethodType@AdvionLCObjects@@QEAA@XZ
      15  0x1cac0  ??0c_AdvionUVMethodType@AdvionLCObjects@@QEAA@AEBV01@@Z
      16  0x1c9e0  ??0c_AdvionUVMethodType@AdvionLCObjects@@QEAA@XZ
      17  0x1c1b0  ??0c_AliasMethodType@AdvionLCObjects@@QEAA@AEBV01@@Z
      18  0x1c150  ??0c_AliasMethodType@AdvionLCObjects@@QEAA@XZ
      19  0x6d5d0  ??0c_AnalogInput@AdvionObjects@@QEAA@AEBV01@@Z
      20  0x6d530  ??0c_AnalogInput@AdvionObjects@@QEAA@XZ
      21  0x86cb0  ??0c_AnalogInputs@AdvionObjects@@QEAA@AEBV01@@Z
      22  0x86c40  ??0c_AnalogInputs@AdvionObjects@@QEAA@XZ
      23  0x816b0  ??0c_AnalogOutput@AdvionObjects@@QEAA@AEBV01@@Z
      24  0x815e0  ??0c_AnalogOutput@AdvionObjects@@QEAA@XZ
      25  0x802c0  ??0c_AnalogOutputSmoothing@AdvionObjects@@QEAA@AEBV01@@Z
      26  0x80250  ??0c_AnalogOutputSmoothing@AdvionObjects@@QEAA@XZ
      27  0x97460  ??0c_AnalogOutputs@AdvionObjects@@QEAA@AEBV01@@Z
      28  0x973f0  ??0c_AnalogOutputs@AdvionObjects@@QEAA@XZ
      29  0x9a420  ??0c_Analyte@AdvionObjects@@QEAA@AEBV01@@Z
      30  0x9a300  ??0c_Analyte@AdvionObjects@@QEAA@XZ
      31  0x8ae30  ??0c_AnalyteSettings@AdvionObjects@@QEAA@AEBV01@@Z
      32  0x8ad30  ??0c_AnalyteSettings@AdvionObjects@@QEAA@XZ
      33  0x62ab0  ??0c_ApciSource@AdvionObjects@@QEAA@AEBV01@@Z
      34  0x62a10  ??0c_ApciSource@AdvionObjects@@QEAA@XZ
      35  0x11110  ??0c_AvantSamplerCooling@AdvionLCObjects@@QEAA@AEBV01@@Z
      36  0x11080  ??0c_AvantSamplerCooling@AdvionLCObjects@@QEAA@XZ
      37   0xe240  ??0c_AvantSamplerInjection@AdvionLCObjects@@QEAA@AEBV01@@Z
      38   0xe130  ??0c_AvantSamplerInjection@AdvionLCObjects@@QEAA@XZ
      39  0x1b090  ??0c_AvantSamplerMethodType@AdvionLCObjects@@QEAA@AEBV01@@Z
      40  0x1afe0  ??0c_AvantSamplerMethodType@AdvionLCObjects@@QEAA@XZ
      41  0x11cb0  ??0c_AvantSamplerValveWash@AdvionLCObjects@@QEAA@AEBV01@@Z
      42  0x11c30  ??0c_AvantSamplerValveWash@AdvionLCObjects@@QEAA@XZ
      43  0x10070  ??0c_AvantSamplerWashLine@AdvionLCObjects@@QEAA@AEBV01@@Z
      44   0xffe0  ??0c_AvantSamplerWashLine@AdvionLCObjects@@QEAA@XZ
      45  0x8f3c0  ??0c_BackgroundOptions@AdvionObjects@@QEAA@AEBV01@@Z
      46  0x8f320  ??0c_BackgroundOptions@AdvionObjects@@QEAA@XZ
      47  0x7b5c0  ??0c_BackgroundSpectrum@AdvionObjects@@QEAA@AEBV01@@Z
      48  0x7b540  ??0c_BackgroundSpectrum@AdvionObjects@@QEAA@XZ
      49  0x92bc0  ??0c_BackgroundSpectrumGraphInfo@AdvionObjects@@QEAA@AEBV01@@Z
      50  0x92b60  ??0c_BackgroundSpectrumGraphInfo@AdvionObjects@@QEAA@XZ
      51  0x95e40  ??0c_BasePeakChromGraphInfo@AdvionObjects@@QEAA@AEBV01@@Z
      52  0x95db0  ??0c_BasePeakChromGraphInfo@AdvionObjects@@QEAA@XZ
      53  0x7ed80  ??0c_BaselineRemoval@AdvionObjects@@QEAA@AEBV01@@Z
      54  0x7ed10  ??0c_BaselineRemoval@AdvionObjects@@QEAA@XZ
      55  0x7c570  ??0c_BoxFilter@AdvionObjects@@QEAA@AEBV01@@Z
      56  0x7c500  ??0c_BoxFilter@AdvionObjects@@QEAA@XZ
      57  0x77a60  ??0c_CalibrationAnalyte@AdvionObjects@@QEAA@AEBV01@@Z
      58  0x779e0  ??0c_CalibrationAnalyte@AdvionObjects@@QEAA@XZ
      59  0x89330  ??0c_CalibrationStandard@AdvionObjects@@QEAA@AEBV01@@Z
      60  0x892a0  ??0c_CalibrationStandard@AdvionObjects@@QEAA@XZ
      61  0x93460  ??0c_ChromGraphInfo@AdvionObjects@@QEAA@AEBV01@@Z
      62  0x93400  ??0c_ChromGraphInfo@AdvionObjects@@QEAA@XZ
      63  0x6e540  ??0c_ClosureOutTrigger@AdvionObjects@@QEAA@AEBV01@@Z
      64  0x6e4d0  ??0c_ClosureOutTrigger@AdvionObjects@@QEAA@XZ
      65   0xd420  ??0c_ClosureTriggerIn@AdvionLCObjects@@QEAA@AEBV01@@Z
      66   0xd380  ??0c_ClosureTriggerIn@AdvionLCObjects@@QEAA@XZ
      67  0x76ce0  ??0c_ClosureTriggerIn@AdvionObjects@@QEAA@AEBV01@@Z
      68  0x76c40  ??0c_ClosureTriggerIn@AdvionObjects@@QEAA@XZ
      69 0x134e60  ??0c_CmsTuneParametersType@AdvionObjects@@QEAA@AEBV01@@Z
      70 0x134d40  ??0c_CmsTuneParametersType@AdvionObjects@@QEAA@XZ
      71   0x6be0  ??0c_ColumnOvenMethod@AdvionLCObjects@@QEAA@AEBV01@@Z
      72   0x6b90  ??0c_ColumnOvenMethod@AdvionLCObjects@@QEAA@XZ
      73  0x1a560  ??0c_ContactClosureIn@AdvionLCObjects@@QEAA@AEBV01@@Z
      74  0x1a4e0  ??0c_ContactClosureIn@AdvionLCObjects@@QEAA@XZ
      75  0x88830  ??0c_ContactClosureIn@AdvionObjects@@QEAA@AEBV01@@Z
      76  0x887b0  ??0c_ContactClosureIn@AdvionObjects@@QEAA@XZ
      77  0x878a0  ??0c_ContactClosureOut@AdvionObjects@@QEAA@AEBV01@@Z
      78  0x87810  ??0c_ContactClosureOut@AdvionObjects@@QEAA@XZ
      79  0x98170  ??0c_ContactClosuresOut@AdvionObjects@@QEAA@AEBV01@@Z
      80  0x98100  ??0c_ContactClosuresOut@AdvionObjects@@QEAA@XZ
      81  0x64490  ??0c_DartSource@AdvionObjects@@QEAA@AEBV01@@Z
      82  0x64420  ??0c_DartSource@AdvionObjects@@QEAA@XZ
      83  0x6a7c0  ??0c_DeltaBackgroundParameters@AdvionObjects@@QEAA@AEBV01@@Z
      84  0x6a710  ??0c_DeltaBackgroundParameters@AdvionObjects@@QEAA@XZ
      85  0x85ae0  ??0c_DeltaICAnalogOutput@AdvionObjects@@QEAA@AEBV01@@Z
      86  0x85a80  ??0c_DeltaICAnalogOutput@AdvionObjects@@QEAA@XZ
      87  0x750b0  ??0c_DeltaICPeakTrigger@AdvionObjects@@QEAA@AEBV01@@Z
      88  0x75050  ??0c_DeltaICPeakTrigger@AdvionObjects@@QEAA@XZ
      89  0x863c0  ??0c_DeltaXICAnalogOutput@AdvionObjects@@QEAA@AEBV01@@Z
      90  0x86360  ??0c_DeltaXICAnalogOutput@AdvionObjects@@QEAA@XZ
      91  0x75990  ??0c_DeltaXICPeakTrigger@AdvionObjects@@QEAA@AEBV01@@Z
      92  0x75930  ??0c_DeltaXICPeakTrigger@AdvionObjects@@QEAA@XZ
      93   0xba30  ??0c_DiverterValveMethod@AdvionLCObjects@@QEAA@AEBV01@@Z
      94   0xb9a0  ??0c_DiverterValveMethod@AdvionLCObjects@@QEAA@XZ
      95  0x63850  ??0c_EsiSource@AdvionObjects@@QEAA@AEBV01@@Z
      96  0x637c0  ??0c_EsiSource@AdvionObjects@@QEAA@XZ
      97  0x839e0  ??0c_ExtractedAnalogOutput@AdvionObjects@@QEAA@AEBV01@@Z
      98  0x83950  ??0c_ExtractedAnalogOutput@AdvionObjects@@QEAA@XZ
      99  0x72fb0  ??0c_ExtractedPeakTrigger@AdvionObjects@@QEAA@AEBV01@@Z
     100  0x72f20  ??0c_ExtractedPeakTrigger@AdvionObjects@@QEAA@XZ
     101  0x7bee0  ??0c_Filter@AdvionObjects@@QEAA@AEBV01@@Z
     102  0x7be90  ??0c_Filter@AdvionObjects@@QEAA@XZ
     103  0x8dee0  ??0c_GlobalPeakDetection@AdvionObjects@@QEAA@AEBV01@@Z
     104  0x8ddd0  ??0c_GlobalPeakDetection@AdvionObjects@@QEAA@XZ
     105   0xc870  ??0c_GradientMethod@AdvionLCObjects@@QEAA@AEBV01@@Z
     106   0xc7e0  ??0c_GradientMethod@AdvionLCObjects@@QEAA@XZ
     107  0x1e4a0  ??0c_GradientPumpType@AdvionLCObjects@@QEAA@AEBV01@@Z
     108  0x1e340  ??0c_GradientPumpType@AdvionLCObjects@@QEAA@XZ
     109  0x900d0  ??0c_GraphInfo@AdvionObjects@@QEAA@AEBV01@@Z
     110  0x8ffe0  ??0c_GraphInfo@AdvionObjects@@QEAA@XZ
     111 0x126620  ??0c_IntegrationBaseline@AdvionObjects@@QEAA@AEBV01@@Z
     112 0x126560  ??0c_IntegrationBaseline@AdvionObjects@@QEAA@XZ
     113  0x7a540  ??0c_IntegrationPoint@AdvionObjects@@QEAA@AEBV01@@Z
     114  0x7a4a0  ??0c_IntegrationPoint@AdvionObjects@@QEAA@XZ
     115  0x62310  ??0c_IonSource@AdvionObjects@@QEAA@AEBV01@@Z
     116  0x622c0  ??0c_IonSource@AdvionObjects@@QEAA@XZ
     117  0x6b850  ??0c_MassOfInterest@AdvionObjects@@QEAA@AEBV01@@Z
     118  0x6b780  ??0c_MassOfInterest@AdvionObjects@@QEAA@XZ
     119  0xa0550  ??0c_MethodType@AdvionObjects@@QEAA@AEBV01@@Z
     120  0xa0420  ??0c_MethodType@AdvionObjects@@QEAA@XZ
     121  0x93fa0  ??0c_ParentChromGraphInfo@AdvionObjects@@QEAA@AEBV01@@Z
     122  0x93f20  ??0c_ParentChromGraphInfo@AdvionObjects@@QEAA@XZ
     123 0x1275b0  ??0c_Peak@AdvionObjects@@QEAA@AEBV01@@Z
     124 0x1274c0  ??0c_Peak@AdvionObjects@@QEAA@XZ
     125  0x79e80  ??0c_PeakDetectionType@AdvionObjects@@QEAA@AEBV01@@Z
     126  0x79e30  ??0c_PeakDetectionType@AdvionObjects@@QEAA@XZ
     127  0x70ae0  ??0c_PeakTrigger@AdvionObjects@@QEAA@AEBV01@@Z
     128  0x709d0  ??0c_PeakTrigger@AdvionObjects@@QEAA@XZ
     129   0x5ea0  ??0c_PumpMethod@AdvionLCObjects@@QEAA@AEBV01@@Z
     130   0x5e50  ??0c_PumpMethod@AdvionLCObjects@@QEAA@XZ
     131  0x79030  ??0c_QuantScanMode@AdvionObjects@@QEAA@AEBV01@@Z
     132  0x78fa0  ??0c_QuantScanMode@AdvionObjects@@QEAA@XZ
     133  0x9e3b0  ??0c_QuantitationType@AdvionObjects@@QEAA@AEBV01@@Z
     134  0x9e260  ??0c_QuantitationType@AdvionObjects@@QEAA@XZ
     135  0x7d000  ??0c_RangeScanMode@AdvionObjects@@QEAA@AEBV01@@Z
     136  0x7cf30  ??0c_RangeScanMode@AdvionObjects@@QEAA@XZ
     137  0x6fc20  ??0c_RepeatTimeTrigger@AdvionObjects@@QEAA@AEBV01@@Z
     138  0x6fb80  ??0c_RepeatTimeTrigger@AdvionObjects@@QEAA@XZ
     139  0x85000  ??0c_SIMAnalogOutput@AdvionObjects@@QEAA@AEBV01@@Z
     140  0x84f80  ??0c_SIMAnalogOutput@AdvionObjects@@QEAA@XZ
     141  0x745d0  ??0c_SIMPeakTrigger@AdvionObjects@@QEAA@AEBV01@@Z
     142  0x74550  ??0c_SIMPeakTrigger@AdvionObjects@@QEAA@XZ
     143  0x7e2e0  ??0c_SIMScanMode@AdvionObjects@@QEAA@AEBV01@@Z
     144  0x7e270  ??0c_SIMScanMode@AdvionObjects@@QEAA@XZ
     145   0x6510  ??0c_SamplerMethod@AdvionLCObjects@@QEAA@AEBV01@@Z
     146   0x64c0  ??0c_SamplerMethod@AdvionLCObjects@@QEAA@XZ
     147  0x969e0  ??0c_ScalarChannelChromGraphInfo@AdvionObjects@@QEAA@AEBV01@@Z
     148  0x96960  ??0c_ScalarChannelChromGraphInfo@AdvionObjects@@QEAA@XZ
     149  0x6a090  ??0c_ScanMode@AdvionObjects@@QEAA@AEBV01@@Z
     150  0x6a040  ??0c_ScanMode@AdvionObjects@@QEAA@XZ
     151  0x78400  ??0c_SemiQuantIsotope@AdvionObjects@@QEAA@AEBV01@@Z
     152  0x78370  ??0c_SemiQuantIsotope@AdvionObjects@@QEAA@XZ
     153  0x98d60  ??0c_SemiQuantSettings@AdvionObjects@@QEAA@AEBV01@@Z
     154  0x98cd0  ??0c_SemiQuantSettings@AdvionObjects@@QEAA@XZ
     155  0x8a190  ??0c_SemiQuantStandard@AdvionObjects@@QEAA@AEBV01@@Z
     156  0x8a100  ??0c_SemiQuantStandard@AdvionObjects@@QEAA@XZ
     157  0x6cb20  ??0c_Smoothing@AdvionObjects@@QEAA@AEBV01@@Z
     158  0x6caa0  ??0c_Smoothing@AdvionObjects@@QEAA@XZ
     159  0x91c80  ??0c_SpectrumGraphInfo@AdvionObjects@@QEAA@AEBV01@@Z
     160  0x91bd0  ??0c_SpectrumGraphInfo@AdvionObjects@@QEAA@XZ
     161  0x830d0  ??0c_TICAnalogOutput@AdvionObjects@@QEAA@AEBV01@@Z
     162  0x83070  ??0c_TICAnalogOutput@AdvionObjects@@QEAA@XZ
     163  0x949c0  ??0c_TICChromGraphInfo@AdvionObjects@@QEAA@AEBV01@@Z
     164  0x94960  ??0c_TICChromGraphInfo@AdvionObjects@@QEAA@XZ
     165  0x726a0  ??0c_TICPeakTrigger@AdvionObjects@@QEAA@AEBV01@@Z
     166  0x72640  ??0c_TICPeakTrigger@AdvionObjects@@QEAA@XZ
     167  0x7f700  ??0c_TimeBaselineRemoval@AdvionObjects@@QEAA@AEBV01@@Z
     168  0x7f670  ??0c_TimeBaselineRemoval@AdvionObjects@@QEAA@XZ
     169  0x6f180  ??0c_TimeTrigger@AdvionObjects@@QEAA@AEBV01@@Z
     170  0x6f110  ??0c_TimeTrigger@AdvionObjects@@QEAA@XZ
     171  0x80c20  ??0c_TriangleAnalogOutputSmoothing@AdvionObjects@@QEAA@AEBV01@@Z
     172  0x80bb0  ??0c_TriangleAnalogOutputSmoothing@AdvionObjects@@QEAA@XZ
     173   0xa390  ??0c_UVAnalogOutput@AdvionLCObjects@@QEAA@AEBV01@@Z
     174   0xa320  ??0c_UVAnalogOutput@AdvionLCObjects@@QEAA@XZ
     175   0x9430  ??0c_UVChannel@AdvionLCObjects@@QEAA@AEBV01@@Z
     176   0x9370  ??0c_UVChannel@AdvionLCObjects@@QEAA@XZ
     177   0xacf0  ??0c_UVChannelAnalogOutput@AdvionLCObjects@@QEAA@AEBV01@@Z
     178   0xac50  ??0c_UVChannelAnalogOutput@AdvionLCObjects@@QEAA@XZ
     179  0x18390  ??0c_UVChannelScanMode@AdvionLCObjects@@QEAA@AEBV01@@Z
     180  0x18320  ??0c_UVChannelScanMode@AdvionLCObjects@@QEAA@XZ
     181   0x7250  ??0c_UVDetectorMethod@AdvionLCObjects@@QEAA@AEBV01@@Z
     182   0x7200  ??0c_UVDetectorMethod@AdvionLCObjects@@QEAA@XZ
     183   0x8300  ??0c_UVRangeScanMode@AdvionLCObjects@@QEAA@AEBV01@@Z
     184   0x8230  ??0c_UVRangeScanMode@AdvionLCObjects@@QEAA@XZ
     185   0x78e0  ??0c_UVScanMode@AdvionLCObjects@@QEAA@AEBV01@@Z
     186   0x7870  ??0c_UVScanMode@AdvionLCObjects@@QEAA@XZ
     187  0x84700  ??0c_XICAnalogOutput@AdvionObjects@@QEAA@AEBV01@@Z
     188  0x846a0  ??0c_XICAnalogOutput@AdvionObjects@@QEAA@XZ
     189  0x95290  ??0c_XICChromGraphInfo@AdvionObjects@@QEAA@AEBV01@@Z
     190  0x95200  ??0c_XICChromGraphInfo@AdvionObjects@@QEAA@XZ
     191  0x73cd0  ??0c_XICPeakTrigger@AdvionObjects@@QEAA@AEBV01@@Z
     192  0x73c70  ??0c_XICPeakTrigger@AdvionObjects@@QEAA@XZ
     193  0x999e0  ??0c_additionalMasses@c_Analyte@AdvionObjects@@QEAA@AEBV012@@Z
     194  0x99970  ??0c_additionalMasses@c_Analyte@AdvionObjects@@QEAA@XZ
     195 0x132d60  ??0c_calibration@AdvionObjects@@QEAA@AEBV01@@Z
     196 0x132cf0  ??0c_calibration@AdvionObjects@@QEAA@XZ
     197 0x132050  ??0c_calibrationSegment@AdvionObjects@@QEAA@AEBV01@@Z
     198 0x131fb0  ??0c_calibrationSegment@AdvionObjects@@QEAA@XZ
     199  0x65340  ??0c_ionSourceOptimization@AdvionObjects@@QEAA@AEAVc_xml_reader@lmx@@PEAW4elmx_error@3@@Z
     200  0x64f10  ??0c_ionSourceOptimization@AdvionObjects@@QEAA@AEBV01@@Z
     201  0x657b0  ??0c_ionSourceOptimization@AdvionObjects@@QEAA@AEBV?$basic_string@DU?$char_traits@D@std@@V?$allocator@D@2@@std@@PEAW4elmx_error@lmx@@PEAUs_debug_error@5@@Z
     202  0x658f0  ??0c_ionSourceOptimization@AdvionObjects@@QEAA@AEBVc_any_info@lmx@@PEAW4elmx_error@3@PEAUs_debug_error@3@@Z
     203  0x65690  ??0c_ionSourceOptimization@AdvionObjects@@QEAA@PEBD_KPEAW4elmx_error@lmx@@PEAUs_debug_error@3@@Z
     204  0x65450  ??0c_ionSourceOptimization@AdvionObjects@@QEAA@QEBDPEAW4elmx_error@lmx@@PEAUs_debug_error@3@@Z
     205  0x65570  ??0c_ionSourceOptimization@AdvionObjects@@QEAA@QEB_WPEAW4elmx_error@lmx@@PEAUs_debug_error@3@@Z
     206  0x64e20  ??0c_ionSourceOptimization@AdvionObjects@@QEAA@XZ
     207 0x1343e0  ??0c_massCalibration@AdvionObjects@@QEAA@AEBV01@@Z
     208 0x134370  ??0c_massCalibration@AdvionObjects@@QEAA@XZ
     209  0xa2890  ??0c_method@AdvionObjects@@QEAA@AEAVc_xml_reader@lmx@@PEAW4elmx_error@3@@Z
     210  0xa2640  ??0c_method@AdvionObjects@@QEAA@AEBV01@@Z
     211  0xa2b40  ??0c_method@AdvionObjects@@QEAA@AEBV?$basic_string@DU?$char_traits@D@std@@V?$allocator@D@2@@std@@PEAW4elmx_error@lmx@@PEAUs_debug_error@5@@Z
     212  0xa2c10  ??0c_method@AdvionObjects@@QEAA@AEBVc_any_info@lmx@@PEAW4elmx_error@3@PEAUs_debug_error@3@@Z
     213  0xa2a90  ??0c_method@AdvionObjects@@QEAA@PEBD_KPEAW4elmx_error@lmx@@PEAUs_debug_error@3@@Z
     214  0xa2930  ??0c_method@AdvionObjects@@QEAA@QEBDPEAW4elmx_error@lmx@@PEAUs_debug_error@3@@Z
     215  0xa29e0  ??0c_method@AdvionObjects@@QEAA@QEB_WPEAW4elmx_error@lmx@@PEAUs_debug_error@3@@Z
     216  0xa25c0  ??0c_method@AdvionObjects@@QEAA@XZ
     217  0x8ccb0  ??0c_peakDetection@AdvionObjects@@QEAA@AEAVc_xml_reader@lmx@@PEAW4elmx_error@3@@Z
     218  0x8ca40  ??0c_peakDetection@AdvionObjects@@QEAA@AEBV01@@Z
     219  0x8cf60  ??0c_peakDetection@AdvionObjects@@QEAA@AEBV?$basic_string@DU?$char_traits@D@std@@V?$allocator@D@2@@std@@PEAW4elmx_error@lmx@@PEAUs_debug_error@5@@Z
     220  0x8d030  ??0c_peakDetection@AdvionObjects@@QEAA@AEBVc_any_info@lmx@@PEAW4elmx_error@3@PEAUs_debug_error@3@@Z
     221  0x8ceb0  ??0c_peakDetection@AdvionObjects@@QEAA@PEBD_KPEAW4elmx_error@lmx@@PEAUs_debug_error@3@@Z
     222  0x8cd50  ??0c_peakDetection@AdvionObjects@@QEAA@QEBDPEAW4elmx_error@lmx@@PEAUs_debug_error@3@@Z
     223  0x8ce00  ??0c_peakDetection@AdvionObjects@@QEAA@QEB_WPEAW4elmx_error@lmx@@PEAUs_debug_error@3@@Z
     224  0x8c9c0  ??0c_peakDetection@AdvionObjects@@QEAA@XZ
     225 0x128b70  ??0c_peakList@AdvionObjects@@QEAA@AEAVc_xml_reader@lmx@@PEAW4elmx_error@3@@Z
     226 0x128870  ??0c_peakList@AdvionObjects@@QEAA@AEBV01@@Z
     227 0x128ec0  ??0c_peakList@AdvionObjects@@QEAA@AEBV?$basic_string@DU?$char_traits@D@std@@V?$allocator@D@2@@std@@PEAW4elmx_error@lmx@@PEAUs_debug_error@5@@Z
     228 0x128fb0  ??0c_peakList@AdvionObjects@@QEAA@AEBVc_any_info@lmx@@PEAW4elmx_error@3@PEAUs_debug_error@3@@Z
     229 0x128de0  ??0c_peakList@AdvionObjects@@QEAA@PEBD_KPEAW4elmx_error@lmx@@PEAUs_debug_error@3@@Z
     230 0x128c40  ??0c_peakList@AdvionObjects@@QEAA@QEBDPEAW4elmx_error@lmx@@PEAUs_debug_error@3@@Z
     231 0x128d10  ??0c_peakList@AdvionObjects@@QEAA@QEB_WPEAW4elmx_error@lmx@@PEAUs_debug_error@3@@Z
     232 0x1287d0  ??0c_peakList@AdvionObjects@@QEAA@XZ
     233  0x9c420  ??0c_processMethod@AdvionObjects@@QEAA@AEAVc_xml_reader@lmx@@PEAW4elmx_error@3@@Z
     234  0x9c080  ??0c_processMethod@AdvionObjects@@QEAA@AEBV01@@Z
     235  0x9c810  ??0c_processMethod@AdvionObjects@@QEAA@AEBV?$basic_string@DU?$char_traits@D@std@@V?$allocator@D@2@@std@@PEAW4elmx_error@lmx@@PEAUs_debug_error@5@@Z
     236  0x9c930  ??0c_processMethod@AdvionObjects@@QEAA@AEBVc_any_info@lmx@@PEAW4elmx_error@3@PEAUs_debug_error@3@@Z
     237  0x9c710  ??0c_processMethod@AdvionObjects@@QEAA@PEBD_KPEAW4elmx_error@lmx@@PEAUs_debug_error@3@@Z
     238  0x9c510  ??0c_processMethod@AdvionObjects@@QEAA@QEBDPEAW4elmx_error@lmx@@PEAUs_debug_error@3@@Z
     239  0x9c610  ??0c_processMethod@AdvionObjects@@QEAA@QEB_WPEAW4elmx_error@lmx@@PEAUs_debug_error@3@@Z
     240  0x9bfb0  ??0c_processMethod@AdvionObjects@@QEAA@XZ
     241 0x133730  ??0c_speedCalibration@AdvionObjects@@QEAA@AEBV01@@Z
     242 0x1336b0  ??0c_speedCalibration@AdvionObjects@@QEAA@XZ
     243 0x136c00  ??0c_tuneParameters@AdvionObjects@@QEAA@AEAVc_xml_reader@lmx@@PEAW4elmx_error@3@@Z
     244 0x1369b0  ??0c_tuneParameters@AdvionObjects@@QEAA@AEBV01@@Z
     245 0x136eb0  ??0c_tuneParameters@AdvionObjects@@QEAA@AEBV?$basic_string@DU?$char_traits@D@std@@V?$allocator@D@2@@std@@PEAW4elmx_error@lmx@@PEAUs_debug_error@5@@Z
     246 0x136f80  ??0c_tuneParameters@AdvionObjects@@QEAA@AEBVc_any_info@lmx@@PEAW4elmx_error@3@PEAUs_debug_error@3@@Z
     247 0x136e00  ??0c_tuneParameters@AdvionObjects@@QEAA@PEBD_KPEAW4elmx_error@lmx@@PEAUs_debug_error@3@@Z
     248 0x136ca0  ??0c_tuneParameters@AdvionObjects@@QEAA@QEBDPEAW4elmx_error@lmx@@PEAUs_debug_error@3@@Z
     249 0x136d50  ??0c_tuneParameters@AdvionObjects@@QEAA@QEB_WPEAW4elmx_error@lmx@@PEAUs_debug_error@3@@Z
     250 0x136930  ??0c_tuneParameters@AdvionObjects@@QEAA@XZ
     251  0x13090  ??0c_uvDetectorDeviceInfo@AdvionLCObjects@@QEAA@AEAVc_xml_reader@lmx@@PEAW4elmx_error@3@@Z
     252  0x12870  ??0c_uvDetectorDeviceInfo@AdvionLCObjects@@QEAA@AEBV01@@Z
     253  0x138e0  ??0c_uvDetectorDeviceInfo@AdvionLCObjects@@QEAA@AEBV?$basic_string@DU?$char_traits@D@std@@V?$allocator@D@2@@std@@PEAW4elmx_error@lmx@@PEAUs_debug_error@5@@Z
     254  0x13b10  ??0c_uvDetectorDeviceInfo@AdvionLCObjects@@QEAA@AEBVc_any_info@lmx@@PEAW4elmx_error@3@PEAUs_debug_error@3@@Z
     255  0x136c0  ??0c_uvDetectorDeviceInfo@AdvionLCObjects@@QEAA@PEBD_KPEAW4elmx_error@lmx@@PEAUs_debug_error@3@@Z
     256  0x132a0  ??0c_uvDetectorDeviceInfo@AdvionLCObjects@@QEAA@QEBDPEAW4elmx_error@lmx@@PEAUs_debug_error@3@@Z
     257  0x134b0  ??0c_uvDetectorDeviceInfo@AdvionLCObjects@@QEAA@QEB_WPEAW4elmx_error@lmx@@PEAUs_debug_error@3@@Z
     258  0x12690  ??0c_uvDetectorDeviceInfo@AdvionLCObjects@@QEAA@XZ
     259  0x76500  ??1c_AdditionalInfo@AdvionObjects@@UEAA@XZ
     260  0x19530  ??1c_AdvionColumnOvenMethodType@AdvionLCObjects@@UEAA@XZ
     261  0x17700  ??1c_AdvionLCMethod@AdvionLCObjects@@UEAA@XZ
     262  0x16190  ??1c_AdvionLCMethodType@AdvionLCObjects@@UEAA@XZ
     263  0x1ce80  ??1c_AdvionUVMethodType@AdvionLCObjects@@UEAA@XZ
     264  0x1c380  ??1c_AliasMethodType@AdvionLCObjects@@UEAA@XZ
     265  0x6d8d0  ??1c_AnalogInput@AdvionObjects@@UEAA@XZ
     266  0x86eb0  ??1c_AnalogInputs@AdvionObjects@@UEAA@XZ
     267  0x81a80  ??1c_AnalogOutput@AdvionObjects@@UEAA@XZ
     268  0x804b0  ??1c_AnalogOutputSmoothing@AdvionObjects@@UEAA@XZ
     269  0x97660  ??1c_AnalogOutputs@AdvionObjects@@UEAA@XZ
     270  0x9a910  ??1c_Analyte@AdvionObjects@@UEAA@XZ
     271  0x8b2d0  ??1c_AnalyteSettings@AdvionObjects@@UEAA@XZ
     272  0x62d50  ??1c_ApciSource@AdvionObjects@@UEAA@XZ
     273  0x11380  ??1c_AvantSamplerCooling@AdvionLCObjects@@UEAA@XZ
     274   0xe720  ??1c_AvantSamplerInjection@AdvionLCObjects@@UEAA@XZ
     275  0x1b380  ??1c_AvantSamplerMethodType@AdvionLCObjects@@UEAA@XZ
     276  0x11ee0  ??1c_AvantSamplerValveWash@AdvionLCObjects@@UEAA@XZ
     277  0x10320  ??1c_AvantSamplerWashLine@AdvionLCObjects@@UEAA@XZ
     278  0x8f690  ??1c_BackgroundOptions@AdvionObjects@@UEAA@XZ
     279  0x7b800  ??1c_BackgroundSpectrum@AdvionObjects@@UEAA@XZ
     280  0x92d90  ??1c_BackgroundSpectrumGraphInfo@AdvionObjects@@UEAA@XZ
     281  0x960b0  ??1c_BasePeakChromGraphInfo@AdvionObjects@@UEAA@XZ
     282  0x7ef70  ??1c_BaselineRemoval@AdvionObjects@@UEAA@XZ
     283  0x7c780  ??1c_BoxFilter@AdvionObjects@@UEAA@XZ
     284  0x77cd0  ??1c_CalibrationAnalyte@AdvionObjects@@UEAA@XZ
     285  0x895e0  ??1c_CalibrationStandard@AdvionObjects@@UEAA@XZ
     286  0x93630  ??1c_ChromGraphInfo@AdvionObjects@@UEAA@XZ
     287  0x6e730  ??1c_ClosureOutTrigger@AdvionObjects@@UEAA@XZ
     288   0xd6e0  ??1c_ClosureTriggerIn@AdvionLCObjects@@UEAA@XZ
     289  0x76fa0  ??1c_ClosureTriggerIn@AdvionObjects@@UEAA@XZ
     290 0x135330  ??1c_CmsTuneParametersType@AdvionObjects@@UEAA@XZ
     291   0x6d60  ??1c_ColumnOvenMethod@AdvionLCObjects@@UEAA@XZ
     292  0x1a7a0  ??1c_ContactClosureIn@AdvionLCObjects@@UEAA@XZ
     293  0x88a70  ??1c_ContactClosureIn@AdvionObjects@@UEAA@XZ
     294  0x87b20  ??1c_ContactClosureOut@AdvionObjects@@UEAA@XZ
     295  0x98370  ??1c_ContactClosuresOut@AdvionObjects@@UEAA@XZ
     296  0x646a0  ??1c_DartSource@AdvionObjects@@UEAA@XZ
     297  0x6aae0  ??1c_DeltaBackgroundParameters@AdvionObjects@@UEAA@XZ
     298  0x85ce0  ??1c_DeltaICAnalogOutput@AdvionObjects@@UEAA@XZ
     299  0x752b0  ??1c_DeltaICPeakTrigger@AdvionObjects@@UEAA@XZ
     300  0x865c0  ??1c_DeltaXICAnalogOutput@AdvionObjects@@UEAA@XZ
     301  0x75b90  ??1c_DeltaXICPeakTrigger@AdvionObjects@@UEAA@XZ
     302   0xbce0  ??1c_DiverterValveMethod@AdvionLCObjects@@UEAA@XZ
     303  0x63ab0  ??1c_EsiSource@AdvionObjects@@UEAA@XZ
     304  0x83c80  ??1c_ExtractedAnalogOutput@AdvionObjects@@UEAA@XZ
     305  0x73250  ??1c_ExtractedPeakTrigger@AdvionObjects@@UEAA@XZ
     306  0x7c060  ??1c_Filter@AdvionObjects@@UEAA@XZ
     307  0x8e330  ??1c_GlobalPeakDetection@AdvionObjects@@UEAA@XZ
     308   0xcaf0  ??1c_GradientMethod@AdvionLCObjects@@UEAA@XZ
     309  0x1ea70  ??1c_GradientPumpType@AdvionLCObjects@@UEAA@XZ
     310  0x904d0  ??1c_GraphInfo@AdvionObjects@@UEAA@XZ
     311 0x126970  ??1c_IntegrationBaseline@AdvionObjects@@UEAA@XZ
     312  0x7a840  ??1c_IntegrationPoint@AdvionObjects@@UEAA@XZ
     313  0x62490  ??1c_IonSource@AdvionObjects@@UEAA@XZ
     314  0x6bbf0  ??1c_MassOfInterest@AdvionObjects@@UEAA@XZ
     315  0xa0a80  ??1c_MethodType@AdvionObjects@@UEAA@XZ
     316  0x941c0  ??1c_ParentChromGraphInfo@AdvionObjects@@UEAA@XZ
     317 0x127990  ??1c_Peak@AdvionObjects@@UEAA@XZ
     318  0x7a000  ??1c_PeakDetectionType@AdvionObjects@@UEAA@XZ
     319  0x70f60  ??1c_PeakTrigger@AdvionObjects@@UEAA@XZ
     320   0x6020  ??1c_PumpMethod@AdvionLCObjects@@UEAA@XZ
     321  0x792e0  ??1c_QuantScanMode@AdvionObjects@@UEAA@XZ
     322  0x9e950  ??1c_QuantitationType@AdvionObjects@@UEAA@XZ
     323  0x7d370  ??1c_RangeScanMode@AdvionObjects@@UEAA@XZ
     324  0x6fec0  ??1c_RepeatTimeTrigger@AdvionObjects@@UEAA@XZ
     325  0x85250  ??1c_SIMAnalogOutput@AdvionObjects@@UEAA@XZ
     326  0x74820  ??1c_SIMPeakTrigger@AdvionObjects@@UEAA@XZ
     327  0x7e500  ??1c_SIMScanMode@AdvionObjects@@UEAA@XZ
     328   0x6690  ??1c_SamplerMethod@AdvionLCObjects@@UEAA@XZ
     329  0x96c00  ??1c_ScalarChannelChromGraphInfo@AdvionObjects@@UEAA@XZ
     330  0x6a210  ??1c_ScanMode@AdvionObjects@@UEAA@XZ
     331  0x78680  ??1c_SemiQuantIsotope@AdvionObjects@@UEAA@XZ
     332  0x99010  ??1c_SemiQuantSettings@AdvionObjects@@UEAA@XZ
     333  0x8a410  ??1c_SemiQuantStandard@AdvionObjects@@UEAA@XZ
     334  0x6cd50  ??1c_Smoothing@AdvionObjects@@UEAA@XZ
     335  0x91fa0  ??1c_SpectrumGraphInfo@AdvionObjects@@UEAA@XZ
     336  0x832d0  ??1c_TICAnalogOutput@AdvionObjects@@UEAA@XZ
     337  0x94b90  ??1c_TICChromGraphInfo@AdvionObjects@@UEAA@XZ
     338  0x728a0  ??1c_TICPeakTrigger@AdvionObjects@@UEAA@XZ
     339  0x7f960  ??1c_TimeBaselineRemoval@AdvionObjects@@UEAA@XZ
     340  0x6f390  ??1c_TimeTrigger@AdvionObjects@@UEAA@XZ
     341  0x80e40  ??1c_TriangleAnalogOutputSmoothing@AdvionObjects@@UEAA@XZ
     342   0xa580  ??1c_UVAnalogOutput@AdvionLCObjects@@UEAA@XZ
     343   0x9780  ??1c_UVChannel@AdvionLCObjects@@UEAA@XZ
     344   0xaf90  ??1c_UVChannelAnalogOutput@AdvionLCObjects@@UEAA@XZ
     345  0x185b0  ??1c_UVChannelScanMode@AdvionLCObjects@@UEAA@XZ
     346   0x73d0  ??1c_UVDetectorMethod@AdvionLCObjects@@UEAA@XZ
     347   0x8670  ??1c_UVRangeScanMode@AdvionLCObjects@@UEAA@XZ
     348   0x7ad0  ??1c_UVScanMode@AdvionLCObjects@@UEAA@XZ
     349  0x84900  ??1c_XICAnalogOutput@AdvionObjects@@UEAA@XZ
     350  0x95500  ??1c_XICChromGraphInfo@AdvionObjects@@UEAA@XZ
     351  0x73ed0  ??1c_XICPeakTrigger@AdvionObjects@@UEAA@XZ
     352  0x99be0  ??1c_additionalMasses@c_Analyte@AdvionObjects@@UEAA@XZ
     353 0x132f60  ??1c_calibration@AdvionObjects@@UEAA@XZ
     354 0x132320  ??1c_calibrationSegment@AdvionObjects@@UEAA@XZ
     355  0x65a10  ??1c_ionSourceOptimization@AdvionObjects@@UEAA@XZ
     356 0x1345e0  ??1c_massCalibration@AdvionObjects@@UEAA@XZ
     357  0xa2cc0  ??1c_method@AdvionObjects@@UEAA@XZ
     358  0x8d0e0  ??1c_peakDetection@AdvionObjects@@UEAA@XZ
     359 0x129080  ??1c_peakList@AdvionObjects@@UEAA@XZ
     360  0x9ca30  ??1c_processMethod@AdvionObjects@@UEAA@XZ
     361 0x133970  ??1c_speedCalibration@AdvionObjects@@UEAA@XZ
     362 0x137030  ??1c_tuneParameters@AdvionObjects@@UEAA@XZ
     363  0x13d20  ??1c_uvDetectorDeviceInfo@AdvionLCObjects@@UEAA@XZ
     364 0x1234f0  ??4ObjectUtility@AdvionObjects@@QEAAAEAV01@$$QEAV01@@Z
     365 0x123510  ??4ObjectUtility@AdvionObjects@@QEAAAEAV01@AEBV01@@Z
     366  0x76340  ??4c_AdditionalInfo@AdvionObjects@@QEAAAEAV01@AEBV01@@Z
     367  0x19300  ??4c_AdvionColumnOvenMethodType@AdvionLCObjects@@QEAAAEAV01@AEBV01@@Z
     368  0x17120  ??4c_AdvionLCMethod@AdvionLCObjects@@QEAAAEAV01@AEBV01@@Z
     369  0x15fd0  ??4c_AdvionLCMethodType@AdvionLCObjects@@QEAAAEAV01@AEBV01@@Z
     370  0x1cc60  ??4c_AdvionUVMethodType@AdvionLCObjects@@QEAAAEAV01@AEBV01@@Z
     371  0x1c220  ??4c_AliasMethodType@AdvionLCObjects@@QEAAAEAV01@AEBV01@@Z
     372  0x6d6e0  ??4c_AnalogInput@AdvionObjects@@QEAAAEAV01@AEBV01@@Z
     373  0x86d40  ??4c_AnalogInputs@AdvionObjects@@QEAAAEAV01@AEBV01@@Z
     374  0x81840  ??4c_AnalogOutput@AdvionObjects@@QEAAAEAV01@AEBV01@@Z
     375  0x80350  ??4c_AnalogOutputSmoothing@AdvionObjects@@QEAAAEAV01@AEBV01@@Z
     376  0x974f0  ??4c_AnalogOutputs@AdvionObjects@@QEAAAEAV01@AEBV01@@Z
     377  0x9a660  ??4c_Analyte@AdvionObjects@@QEAAAEAV01@AEBV01@@Z
     378  0x8b040  ??4c_AnalyteSettings@AdvionObjects@@QEAAAEAV01@AEBV01@@Z
     379  0x62ba0  ??4c_ApciSource@AdvionObjects@@QEAAAEAV01@AEBV01@@Z
     380  0x111f0  ??4c_AvantSamplerCooling@AdvionLCObjects@@QEAAAEAV01@AEBV01@@Z
     381   0xe480  ??4c_AvantSamplerInjection@AdvionLCObjects@@QEAAAEAV01@AEBV01@@Z
     382  0x1b1b0  ??4c_AvantSamplerMethodType@AdvionLCObjects@@QEAAAEAV01@AEBV01@@Z
     383  0x11d60  ??4c_AvantSamplerValveWash@AdvionLCObjects@@QEAAAEAV01@AEBV01@@Z
     384  0x10150  ??4c_AvantSamplerWashLine@AdvionLCObjects@@QEAAAEAV01@AEBV01@@Z
     385  0x8f4d0  ??4c_BackgroundOptions@AdvionObjects@@QEAAAEAV01@AEBV01@@Z
     386  0x7b670  ??4c_BackgroundSpectrum@AdvionObjects@@QEAAAEAV01@AEBV01@@Z
     387  0x92c30  ??4c_BackgroundSpectrumGraphInfo@AdvionObjects@@QEAAAEAV01@AEBV01@@Z
     388  0x95f10  ??4c_BasePeakChromGraphInfo@AdvionObjects@@QEAAAEAV01@AEBV01@@Z
     389  0x7ee10  ??4c_BaselineRemoval@AdvionObjects@@QEAAAEAV01@AEBV01@@Z
     390  0x7c610  ??4c_BoxFilter@AdvionObjects@@QEAAAEAV01@AEBV01@@Z
     391  0x77b10  ??4c_CalibrationAnalyte@AdvionObjects@@QEAAAEAV01@AEBV01@@Z
     392  0x89410  ??4c_CalibrationStandard@AdvionObjects@@QEAAAEAV01@AEBV01@@Z
     393  0x934d0  ??4c_ChromGraphInfo@AdvionObjects@@QEAAAEAV01@AEBV01@@Z
     394  0x6e5d0  ??4c_ClosureOutTrigger@AdvionObjects@@QEAAAEAV01@AEBV01@@Z
     395   0xd530  ??4c_ClosureTriggerIn@AdvionLCObjects@@QEAAAEAV01@AEBV01@@Z
     396  0x76df0  ??4c_ClosureTriggerIn@AdvionObjects@@QEAAAEAV01@AEBV01@@Z
     397 0x1350b0  ??4c_CmsTuneParametersType@AdvionObjects@@QEAAAEAV01@AEBV01@@Z
     398   0x6c30  ??4c_ColumnOvenMethod@AdvionLCObjects@@QEAAAEAV01@AEBV01@@Z
     399  0x1a610  ??4c_ContactClosureIn@AdvionLCObjects@@QEAAAEAV01@AEBV01@@Z
     400  0x888e0  ??4c_ContactClosureIn@AdvionObjects@@QEAAAEAV01@AEBV01@@Z
     401  0x87980  ??4c_ContactClosureOut@AdvionObjects@@QEAAAEAV01@AEBV01@@Z
     402  0x98200  ??4c_ContactClosuresOut@AdvionObjects@@QEAAAEAV01@AEBV01@@Z
     403  0x64530  ??4c_DartSource@AdvionObjects@@QEAAAEAV01@AEBV01@@Z
     404  0x6a900  ??4c_DeltaBackgroundParameters@AdvionObjects@@QEAAAEAV01@AEBV01@@Z
     405  0x85b50  ??4c_DeltaICAnalogOutput@AdvionObjects@@QEAAAEAV01@AEBV01@@Z
     406  0x75120  ??4c_DeltaICPeakTrigger@AdvionObjects@@QEAAAEAV01@AEBV01@@Z
     407  0x86430  ??4c_DeltaXICAnalogOutput@AdvionObjects@@QEAAAEAV01@AEBV01@@Z
     408  0x75a00  ??4c_DeltaXICPeakTrigger@AdvionObjects@@QEAAAEAV01@AEBV01@@Z
     409   0xbb10  ??4c_DiverterValveMethod@AdvionLCObjects@@QEAAAEAV01@AEBV01@@Z
     410  0x63910  ??4c_EsiSource@AdvionObjects@@QEAAAEAV01@AEBV01@@Z
     411  0x83ab0  ??4c_ExtractedAnalogOutput@AdvionObjects@@QEAAAEAV01@AEBV01@@Z
     412  0x73080  ??4c_ExtractedPeakTrigger@AdvionObjects@@QEAAAEAV01@AEBV01@@Z
     413  0x7bf30  ??4c_Filter@AdvionObjects@@QEAAAEAV01@AEBV01@@Z
     414  0x8e0e0  ??4c_GlobalPeakDetection@AdvionObjects@@QEAAAEAV01@AEBV01@@Z
     415   0xc950  ??4c_GradientMethod@AdvionLCObjects@@QEAAAEAV01@AEBV01@@Z
     416  0x1e770  ??4c_GradientPumpType@AdvionLCObjects@@QEAAAEAV01@AEBV01@@Z
     417  0x902a0  ??4c_GraphInfo@AdvionObjects@@QEAAAEAV01@AEBV01@@Z
     418 0x126780  ??4c_IntegrationBaseline@AdvionObjects@@QEAAAEAV01@AEBV01@@Z
     419  0x7a650  ??4c_IntegrationPoint@AdvionObjects@@QEAAAEAV01@AEBV01@@Z
     420  0x62360  ??4c_IonSource@AdvionObjects@@QEAAAEAV01@AEBV01@@Z
     421  0x6b9e0  ??4c_MassOfInterest@AdvionObjects@@QEAAAEAV01@AEBV01@@Z
     422  0xa07c0  ??4c_MethodType@AdvionObjects@@QEAAAEAV01@AEBV01@@Z
     423  0x94040  ??4c_ParentChromGraphInfo@AdvionObjects@@QEAAAEAV01@AEBV01@@Z
     424 0x127770  ??4c_Peak@AdvionObjects@@QEAAAEAV01@AEBV01@@Z
     425  0x79ed0  ??4c_PeakDetectionType@AdvionObjects@@QEAAAEAV01@AEBV01@@Z
     426  0x70ce0  ??4c_PeakTrigger@AdvionObjects@@QEAAAEAV01@AEBV01@@Z
     427   0x5ef0  ??4c_PumpMethod@AdvionLCObjects@@QEAAAEAV01@AEBV01@@Z
     428  0x79110  ??4c_QuantScanMode@AdvionObjects@@QEAAAEAV01@AEBV01@@Z
     429  0x9e660  ??4c_QuantitationType@AdvionObjects@@QEAAAEAV01@AEBV01@@Z
     430  0x7d170  ??4c_RangeScanMode@AdvionObjects@@QEAAAEAV01@AEBV01@@Z
     431  0x6fd10  ??4c_RepeatTimeTrigger@AdvionObjects@@QEAAAEAV01@AEBV01@@Z
     432  0x850a0  ??4c_SIMAnalogOutput@AdvionObjects@@QEAAAEAV01@AEBV01@@Z
     433  0x74670  ??4c_SIMPeakTrigger@AdvionObjects@@QEAAAEAV01@AEBV01@@Z
     434  0x7e380  ??4c_SIMScanMode@AdvionObjects@@QEAAAEAV01@AEBV01@@Z
     435   0x6560  ??4c_SamplerMethod@AdvionLCObjects@@QEAAAEAV01@AEBV01@@Z
     436  0x96a80  ??4c_ScalarChannelChromGraphInfo@AdvionObjects@@QEAAAEAV01@AEBV01@@Z
     437  0x6a0e0  ??4c_ScanMode@AdvionObjects@@QEAAAEAV01@AEBV01@@Z
     438  0x784e0  ??4c_SemiQuantIsotope@AdvionObjects@@QEAAAEAV01@AEBV01@@Z
     439  0x98e40  ??4c_SemiQuantSettings@AdvionObjects@@QEAAAEAV01@AEBV01@@Z
     440  0x8a270  ??4c_SemiQuantStandard@AdvionObjects@@QEAAAEAV01@AEBV01@@Z
     441  0x6cbd0  ??4c_Smoothing@AdvionObjects@@QEAAAEAV01@AEBV01@@Z
     442  0x91dc0  ??4c_SpectrumGraphInfo@AdvionObjects@@QEAAAEAV01@AEBV01@@Z
     443  0x83140  ??4c_TICAnalogOutput@AdvionObjects@@QEAAAEAV01@AEBV01@@Z
     444  0x94a30  ??4c_TICChromGraphInfo@AdvionObjects@@QEAAAEAV01@AEBV01@@Z
     445  0x72710  ??4c_TICPeakTrigger@AdvionObjects@@QEAAAEAV01@AEBV01@@Z
     446  0x7f7c0  ??4c_TimeBaselineRemoval@AdvionObjects@@QEAAAEAV01@AEBV01@@Z
     447  0x6f220  ??4c_TimeTrigger@AdvionObjects@@QEAAAEAV01@AEBV01@@Z
     448  0x80cc0  ??4c_TriangleAnalogOutputSmoothing@AdvionObjects@@QEAAAEAV01@AEBV01@@Z
     449   0xa420  ??4c_UVAnalogOutput@AdvionLCObjects@@QEAAAEAV01@AEBV01@@Z
     450   0x9590  ??4c_UVChannel@AdvionLCObjects@@QEAAAEAV01@AEBV01@@Z
     451   0xade0  ??4c_UVChannelAnalogOutput@AdvionLCObjects@@QEAAAEAV01@AEBV01@@Z
     452  0x18430  ??4c_UVChannelScanMode@AdvionLCObjects@@QEAAAEAV01@AEBV01@@Z
     453   0x72a0  ??4c_UVDetectorMethod@AdvionLCObjects@@QEAAAEAV01@AEBV01@@Z
     454   0x8470  ??4c_UVRangeScanMode@AdvionLCObjects@@QEAAAEAV01@AEBV01@@Z
     455   0x7970  ??4c_UVScanMode@AdvionLCObjects@@QEAAAEAV01@AEBV01@@Z
     456  0x84770  ??4c_XICAnalogOutput@AdvionObjects@@QEAAAEAV01@AEBV01@@Z
     457  0x95360  ??4c_XICChromGraphInfo@AdvionObjects@@QEAAAEAV01@AEBV01@@Z
     458  0x73d40  ??4c_XICPeakTrigger@AdvionObjects@@QEAAAEAV01@AEBV01@@Z
     459  0x99a70  ??4c_additionalMasses@c_Analyte@AdvionObjects@@QEAAAEAV012@AEBV012@@Z
     460 0x132df0  ??4c_calibration@AdvionObjects@@QEAAAEAV01@AEBV01@@Z
     461 0x132160  ??4c_calibrationSegment@AdvionObjects@@QEAAAEAV01@AEBV01@@Z
     462  0x650e0  ??4c_ionSourceOptimization@AdvionObjects@@QEAAAEAV01@AEBV01@@Z
     463 0x134470  ??4c_massCalibration@AdvionObjects@@QEAAAEAV01@AEBV01@@Z
     464  0xa26e0  ??4c_method@AdvionObjects@@QEAAAEAV01@AEBV01@@Z
     465  0x8caf0  ??4c_peakDetection@AdvionObjects@@QEAAAEAV01@AEBV01@@Z
     466 0x128980  ??4c_peakList@AdvionObjects@@QEAAAEAV01@AEBV01@@Z
     467  0x9c1f0  ??4c_processMethod@AdvionObjects@@QEAAAEAV01@AEBV01@@Z
     468 0x1337e0  ??4c_speedCalibration@AdvionObjects@@QEAAAEAV01@AEBV01@@Z
     469 0x136a50  ??4c_tuneParameters@AdvionObjects@@QEAAAEAV01@AEBV01@@Z
     470  0x12cb0  ??4c_uvDetectorDeviceInfo@AdvionLCObjects@@QEAAAEAV01@AEBV01@@Z
     471 0x16df28  ?AdvionLCMethod_reader@AdvionLCObjects@@3QBUs_ns_map@lmx@@B
     472 0x16df40  ?AdvionLCMethod_writer_1@AdvionLCObjects@@3QBUs_ns_map@lmx@@B
     473 0x16df58  ?AdvionLCMethod_writer_2@AdvionLCObjects@@3QBUs_ns_map@lmx@@B
     474 0x182f58  ?IonSource_reader@AdvionObjects@@3QBUs_ns_map@lmx@@B
     475 0x183238  ?IonSource_writer_1@AdvionObjects@@3QBUs_ns_map@lmx@@B
     476 0x18a148  ?Method_reader@AdvionObjects@@3QBUs_ns_map@lmx@@B
     477 0x18a160  ?Method_writer_1@AdvionObjects@@3QBUs_ns_map@lmx@@B
     478 0x18a1a0  ?Method_writer_2@AdvionObjects@@3QBUs_ns_map@lmx@@B
     479 0x18a1d8  ?Method_writer_3@AdvionObjects@@3QBUs_ns_map@lmx@@B
     480 0x18a1f0  ?Method_writer_4@AdvionObjects@@3QBUs_ns_map@lmx@@B
     481 0x18a230  ?Method_writer_5@AdvionObjects@@3QBUs_ns_map@lmx@@B
     482 0x18a258  ?Method_writer_6@AdvionObjects@@3QBUs_ns_map@lmx@@B
     483 0x1b9f50  ?PeakList_reader@AdvionObjects@@3QBUs_ns_map@lmx@@B
     484 0x1b9f68  ?PeakList_writer_1@AdvionObjects@@3QBUs_ns_map@lmx@@B
     485 0x1bd1d8  ?TuneParameters_reader@AdvionObjects@@3QBUs_ns_map@lmx@@B
     486 0x1bd1f0  ?TuneParameters_writer_1@AdvionObjects@@3QBUs_ns_map@lmx@@B
     487  0xee520  ?append_additionalInfo@c_MethodType@AdvionObjects@@QEAA?AW4elmx_error@lmx@@PEAVc_AdditionalInfo@2@@Z
     488  0xee5b0  ?append_additionalInfo@c_MethodType@AdvionObjects@@QEAA?AW4elmx_error@lmx@@XZ
     489  0x47c50  ?append_allowedChannelScanRate@c_uvDetectorDeviceInfo@AdvionLCObjects@@QEAA?AW4elmx_error@lmx@@AEBN@Z
     490  0x47ca0  ?append_allowedFilterTime@c_uvDetectorDeviceInfo@AdvionLCObjects@@QEAA?AW4elmx_error@lmx@@AEBN@Z
     491  0x47cf0  ?append_allowedSpectrumScanRate@c_uvDetectorDeviceInfo@AdvionLCObjects@@QEAA?AW4elmx_error@lmx@@AEBN@Z
     492  0x1cf40  ?append_analogOutput@c_AdvionUVMethodType@AdvionLCObjects@@QEAA?AW4elmx_error@lmx@@PEAVc_UVAnalogOutput@2@@Z
     493  0x47d40  ?append_analogOutput@c_AdvionUVMethodType@AdvionLCObjects@@QEAA?AW4elmx_error@lmx@@XZ
     494  0xee630  ?append_analyte@c_QuantitationType@AdvionObjects@@QEAA?AW4elmx_error@lmx@@PEAVc_Analyte@2@@Z
     495  0xee6c0  ?append_analyte@c_QuantitationType@AdvionObjects@@QEAA?AW4elmx_error@lmx@@XZ
     496  0xee740  ?append_appliedFilters@c_GraphInfo@AdvionObjects@@QEAA?AW4elmx_error@lmx@@PEAVc_Filter@2@@Z
     497  0xee7d0  ?append_appliedFilters@c_GraphInfo@AdvionObjects@@QEAA?AW4elmx_error@lmx@@XZ
     498  0xee850  ?append_backgroundSpectra@c_BackgroundOptions@AdvionObjects@@QEAA?AW4elmx_error@lmx@@PEAVc_BackgroundSpectrum@2@@Z
     499  0xee8e0  ?append_backgroundSpectra@c_BackgroundOptions@AdvionObjects@@QEAA?AW4elmx_error@lmx@@XZ
     500  0xee960  ?append_backgroundSpectrum@c_GraphInfo@AdvionObjects@@QEAA?AW4elmx_error@lmx@@PEAVc_BackgroundSpectrum@2@@Z
     501  0xee9f0  ?append_backgroundSpectrum@c_GraphInfo@AdvionObjects@@QEAA?AW4elmx_error@lmx@@XZ
     502 0x124a30  ?append_calibration@c_massCalibration@AdvionObjects@@QEAA?AW4elmx_error@lmx@@PEAVc_speedCalibration@2@@Z
     503 0x13e8d0  ?append_calibration@c_massCalibration@AdvionObjects@@QEAA?AW4elmx_error@lmx@@XZ
     504  0xeea70  ?append_calibrationAnalyte@c_CalibrationStandard@AdvionObjects@@QEAA?AW4elmx_error@lmx@@PEAVc_CalibrationAnalyte@2@@Z
     505  0xeeb00  ?append_calibrationAnalyte@c_CalibrationStandard@AdvionObjects@@QEAA?AW4elmx_error@lmx@@XZ
     506  0xeeb80  ?append_calibrationStandard@c_QuantitationType@AdvionObjects@@QEAA?AW4elmx_error@lmx@@PEAVc_CalibrationStandard@2@@Z
     507  0xeec10  ?append_calibrationStandard@c_QuantitationType@AdvionObjects@@QEAA?AW4elmx_error@lmx@@XZ
     508  0x18610  ?append_channel@c_UVChannelScanMode@AdvionLCObjects@@QEAA?AW4elmx_error@lmx@@PEAVc_UVChannel@2@@Z
     509  0x47dc0  ?append_channel@c_UVChannelScanMode@AdvionLCObjects@@QEAA?AW4elmx_error@lmx@@XZ
     510  0xeec90  ?append_chromInfos@c_processMethod@AdvionObjects@@QEAA?AW4elmx_error@lmx@@PEAVc_ChromGraphInfo@2@@Z
     511  0xeed20  ?append_chromInfos@c_processMethod@AdvionObjects@@QEAA?AW4elmx_error@lmx@@XZ
     512  0x983c0  ?append_contactClosure@c_ContactClosuresOut@AdvionObjects@@QEAA?AW4elmx_error@lmx@@PEAVc_ContactClosureOut@2@@Z
     513  0xeeda0  ?append_contactClosure@c_ContactClosuresOut@AdvionObjects@@QEAA?AW4elmx_error@lmx@@XZ
     514  0xeee20  ?append_defaultStandard@c_SemiQuantSettings@AdvionObjects@@QEAA?AW4elmx_error@lmx@@PEAVc_SemiQuantStandard@2@@Z
     515  0xeeeb0  ?append_defaultStandard@c_SemiQuantSettings@AdvionObjects@@QEAA?AW4elmx_error@lmx@@XZ
     516  0xeef30  ?append_filter@c_AnalyteSettings@AdvionObjects@@QEAA?AW4elmx_error@lmx@@PEAVc_Filter@2@@Z
     517  0xeefc0  ?append_filter@c_AnalyteSettings@AdvionObjects@@QEAA?AW4elmx_error@lmx@@XZ
     518  0x47e40  ?append_gradient@c_GradientPumpType@AdvionLCObjects@@QEAA?AW4elmx_error@lmx@@PEAVc_GradientMethod@2@@Z
     519  0x47ed0  ?append_gradient@c_GradientPumpType@AdvionLCObjects@@QEAA?AW4elmx_error@lmx@@XZ
     520  0x86f00  ?append_input@c_AnalogInputs@AdvionObjects@@QEAA?AW4elmx_error@lmx@@PEAVc_AnalogInput@2@@Z
     521  0xef040  ?append_input@c_AnalogInputs@AdvionObjects@@QEAA?AW4elmx_error@lmx@@XZ
     522  0xef0c0  ?append_integrationPoint@c_GlobalPeakDetection@AdvionObjects@@QEAA?AW4elmx_error@lmx@@PEAVc_IntegrationPoint@2@@Z
     523  0xef150  ?append_integrationPoint@c_GlobalPeakDetection@AdvionObjects@@QEAA?AW4elmx_error@lmx@@XZ
     524  0xef1d0  ?append_intensity@c_SemiQuantStandard@AdvionObjects@@QEAA?AW4elmx_error@lmx@@AEBN@Z
     525  0xef220  ?append_internalStandard@c_QuantitationType@AdvionObjects@@QEAA?AW4elmx_error@lmx@@PEAVc_Analyte@2@@Z
     526  0xef2b0  ?append_internalStandard@c_QuantitationType@AdvionObjects@@QEAA?AW4elmx_error@lmx@@XZ
     527  0x99c80  ?append_mass@c_additionalMasses@c_Analyte@AdvionObjects@@QEAA?AW4elmx_error@lmx@@AEBN@Z
     528  0xef330  ?append_massOfInterest@c_SIMScanMode@AdvionObjects@@QEAA?AW4elmx_error@lmx@@PEAVc_MassOfInterest@2@@Z
     529  0xef3c0  ?append_massOfInterest@c_SIMScanMode@AdvionObjects@@QEAA?AW4elmx_error@lmx@@XZ
     530  0x976b0  ?append_output@c_AnalogOutputs@AdvionObjects@@QEAA?AW4elmx_error@lmx@@PEAVc_AnalogOutput@2@@Z
     531  0xef440  ?append_output@c_AnalogOutputs@AdvionObjects@@QEAA?AW4elmx_error@lmx@@XZ
     532 0x12ed40  ?append_peak@c_peakList@AdvionObjects@@QEAA?AW4elmx_error@lmx@@PEAVc_Peak@2@@Z
     533 0x12edd0  ?append_peak@c_peakList@AdvionObjects@@QEAA?AW4elmx_error@lmx@@XZ
     534  0xef4c0  ?append_peakDetections@c_GraphInfo@AdvionObjects@@QEAA?AW4elmx_error@lmx@@PEAVc_PeakDetectionType@2@@Z
     535  0xef550  ?append_peakDetections@c_GraphInfo@AdvionObjects@@QEAA?AW4elmx_error@lmx@@XZ
     536  0xa0c10  ?append_scanMode@c_MethodType@AdvionObjects@@QEAA?AW4elmx_error@lmx@@PEAVc_ScanMode@2@@Z
     537  0xef5d0  ?append_scanMode@c_MethodType@AdvionObjects@@QEAA?AW4elmx_error@lmx@@XZ
     538  0x9ee10  ?append_scanMode@c_QuantitationType@AdvionObjects@@QEAA?AW4elmx_error@lmx@@PEAVc_QuantScanMode@2@@Z
     539  0xef650  ?append_scanMode@c_QuantitationType@AdvionObjects@@QEAA?AW4elmx_error@lmx@@XZ
     540 0x124ac0  ?append_segment@c_calibration@AdvionObjects@@QEAA?AW4elmx_error@lmx@@PEAVc_calibrationSegment@2@@Z
     541 0x13e950  ?append_segment@c_calibration@AdvionObjects@@QEAA?AW4elmx_error@lmx@@XZ
     542 0x124b50  ?append_segment@c_speedCalibration@AdvionObjects@@QEAA?AW4elmx_error@lmx@@PEAVc_calibrationSegment@2@@Z
     543 0x13e9d0  ?append_segment@c_speedCalibration@AdvionObjects@@QEAA?AW4elmx_error@lmx@@XZ
     544  0xef6d0  ?append_settings@c_Analyte@AdvionObjects@@QEAA?AW4elmx_error@lmx@@PEAVc_AnalyteSettings@2@@Z
     545  0xef760  ?append_settings@c_Analyte@AdvionObjects@@QEAA?AW4elmx_error@lmx@@XZ
     546  0xef7e0  ?append_spectrumInfos@c_processMethod@AdvionObjects@@QEAA?AW4elmx_error@lmx@@PEAVc_SpectrumGraphInfo@2@@Z
     547  0xef870  ?append_spectrumInfos@c_processMethod@AdvionObjects@@QEAA?AW4elmx_error@lmx@@XZ
     548   0xbf20  ?append_timeEntry@c_DiverterValveMethod@AdvionLCObjects@@QEAA?AW4elmx_error@lmx@@AEBN@Z
     549  0x47f50  ?append_wash@c_AvantSamplerMethodType@AdvionLCObjects@@QEAA?AW4elmx_error@lmx@@PEAVc_AvantSamplerWashLine@2@@Z
     550  0x47fe0  ?append_wash@c_AvantSamplerMethodType@AdvionLCObjects@@QEAA?AW4elmx_error@lmx@@XZ
     551  0xf1e90  ?assign_additionalInfo@c_MethodType@AdvionObjects@@QEAAAEAVc_AdditionalInfo@2@_KAEBV32@@Z
     552  0xf1ee0  ?assign_additionalInfo@c_MethodType@AdvionObjects@@QEAAAEAVc_AdditionalInfo@2@_KPEAV32@@Z
     553  0x9ab60  ?assign_additionalMasses@c_Analyte@AdvionObjects@@QEAAAEAVc_additionalMasses@12@AEBV312@@Z
     554  0x9abb0  ?assign_additionalMasses@c_Analyte@AdvionObjects@@QEAAAEAVc_additionalMasses@12@PEAV312@@Z
     555  0xf1f30  ?assign_analogInputs@c_MethodType@AdvionObjects@@QEAAAEAVc_AnalogInputs@2@AEBV32@@Z
     556  0xf1f70  ?assign_analogInputs@c_MethodType@AdvionObjects@@QEAAAEAVc_AnalogInputs@2@PEAV32@@Z
     557  0x491b0  ?assign_analogOutput@c_AdvionUVMethodType@AdvionLCObjects@@QEAAAEAVc_UVAnalogOutput@2@_KAEBV32@@Z
     558  0x49200  ?assign_analogOutput@c_AdvionUVMethodType@AdvionLCObjects@@QEAAAEAVc_UVAnalogOutput@2@_KPEAV32@@Z
     559  0xf1fc0  ?assign_analogOutputs@c_MethodType@AdvionObjects@@QEAAAEAVc_AnalogOutputs@2@AEBV32@@Z
     560  0xf2000  ?assign_analogOutputs@c_MethodType@AdvionObjects@@QEAAAEAVc_AnalogOutputs@2@PEAV32@@Z
     561  0xf2050  ?assign_analyte@c_QuantitationType@AdvionObjects@@QEAAAEAVc_Analyte@2@_KAEBV32@@Z
     562  0xf20a0  ?assign_analyte@c_QuantitationType@AdvionObjects@@QEAAAEAVc_Analyte@2@_KPEAV32@@Z
     563  0xf20f0  ?assign_appliedFilters@c_GraphInfo@AdvionObjects@@QEAAAEAVc_Filter@2@_KAEBV32@@Z
     564  0xf2140  ?assign_appliedFilters@c_GraphInfo@AdvionObjects@@QEAAAEAVc_Filter@2@_KPEAV32@@Z
     565  0xf2190  ?assign_backgroundOptions@c_processMethod@AdvionObjects@@QEAAAEAVc_BackgroundOptions@2@AEBV32@@Z
     566  0xf21d0  ?assign_backgroundOptions@c_processMethod@AdvionObjects@@QEAAAEAVc_BackgroundOptions@2@PEAV32@@Z
     567  0xf2210  ?assign_backgroundSpectra@c_BackgroundOptions@AdvionObjects@@QEAAAEAVc_BackgroundSpectrum@2@_KAEBV32@@Z
     568  0xf2260  ?assign_backgroundSpectra@c_BackgroundOptions@AdvionObjects@@QEAAAEAVc_BackgroundSpectrum@2@_KPEAV32@@Z
     569  0xf22b0  ?assign_backgroundSpectrum@c_GraphInfo@AdvionObjects@@QEAAAEAVc_BackgroundSpectrum@2@_KAEBV32@@Z
     570  0xf2300  ?assign_backgroundSpectrum@c_GraphInfo@AdvionObjects@@QEAAAEAVc_BackgroundSpectrum@2@_KPEAV32@@Z
     571 0x12f060  ?assign_baseline@c_Peak@AdvionObjects@@QEAAAEAVc_IntegrationBaseline@2@AEBV32@@Z
     572 0x12f0a0  ?assign_baseline@c_Peak@AdvionObjects@@QEAAAEAVc_IntegrationBaseline@2@PEAV32@@Z
     573  0xf2350  ?assign_baselineRemoval@c_AnalogOutput@AdvionObjects@@QEAAAEAVc_BaselineRemoval@2@AEBV32@@Z
     574  0xf2390  ?assign_baselineRemoval@c_AnalogOutput@AdvionObjects@@QEAAAEAVc_BaselineRemoval@2@PEAV32@@Z
     575 0x13edf0  ?assign_calibration@c_CmsTuneParametersType@AdvionObjects@@QEAAAEAVc_calibration@2@AEBV32@@Z
     576 0x124c60  ?assign_calibration@c_CmsTuneParametersType@AdvionObjects@@QEAAAEAVc_calibration@2@PEAV32@@Z
     577 0x13ee30  ?assign_calibration@c_massCalibration@AdvionObjects@@QEAAAEAVc_speedCalibration@2@_KAEBV32@@Z
     578 0x13ee80  ?assign_calibration@c_massCalibration@AdvionObjects@@QEAAAEAVc_speedCalibration@2@_KPEAV32@@Z
     579  0xf23d0  ?assign_calibrationAnalyte@c_CalibrationStandard@AdvionObjects@@QEAAAEAVc_CalibrationAnalyte@2@_KAEBV32@@Z
     580  0xf2420  ?assign_calibrationAnalyte@c_CalibrationStandard@AdvionObjects@@QEAAAEAVc_CalibrationAnalyte@2@_KPEAV32@@Z
     581  0xf2470  ?assign_calibrationStandard@c_QuantitationType@AdvionObjects@@QEAAAEAVc_CalibrationStandard@2@_KAEBV32@@Z
     582  0xf24c0  ?assign_calibrationStandard@c_QuantitationType@AdvionObjects@@QEAAAEAVc_CalibrationStandard@2@_KPEAV32@@Z
     583  0x49250  ?assign_channel@c_UVChannelScanMode@AdvionLCObjects@@QEAAAEAVc_UVChannel@2@_KAEBV32@@Z
     584  0x492a0  ?assign_channel@c_UVChannelScanMode@AdvionLCObjects@@QEAAAEAVc_UVChannel@2@_KPEAV32@@Z
     585  0x492f0  ?assign_channelScanMode@c_AdvionUVMethodType@AdvionLCObjects@@QEAAAEAVc_UVChannelScanMode@2@AEBV32@@Z
     586  0x49330  ?assign_channelScanMode@c_AdvionUVMethodType@AdvionLCObjects@@QEAAAEAVc_UVChannelScanMode@2@PEAV32@@Z
     587  0xf2510  ?assign_chromInfos@c_processMethod@AdvionObjects@@QEAAAEAVc_ChromGraphInfo@2@_KAEBV32@@Z
     588  0xf2560  ?assign_chromInfos@c_processMethod@AdvionObjects@@QEAAAEAVc_ChromGraphInfo@2@_KPEAV32@@Z
     589  0xf25b0  ?assign_closeTrigger@c_ContactClosureOut@AdvionObjects@@QEAAAEAVc_ClosureOutTrigger@2@AEBV32@@Z
     590  0xf25f0  ?assign_closeTrigger@c_ContactClosureOut@AdvionObjects@@QEAAAEAVc_ClosureOutTrigger@2@PEAV32@@Z
     591  0x49370  ?assign_columnOven@c_AdvionLCMethodType@AdvionLCObjects@@QEAAAEAVc_ColumnOvenMethod@2@AEBV32@@Z
     592  0x493b0  ?assign_columnOven@c_AdvionLCMethodType@AdvionLCObjects@@QEAAAEAVc_ColumnOvenMethod@2@PEAV32@@Z
     593 0x12f0e0  ?assign_commonBaseline@c_Peak@AdvionObjects@@QEAAAEAVc_IntegrationBaseline@2@AEBV32@@Z
     594 0x12f120  ?assign_commonBaseline@c_Peak@AdvionObjects@@QEAAAEAVc_IntegrationBaseline@2@PEAV32@@Z
     595  0xf2630  ?assign_contactClosure@c_ContactClosuresOut@AdvionObjects@@QEAAAEAVc_ContactClosureOut@2@_KAEBV32@@Z
     596  0xf2680  ?assign_contactClosure@c_ContactClosuresOut@AdvionObjects@@QEAAAEAVc_ContactClosureOut@2@_KPEAV32@@Z
     597  0x493f0  ?assign_contactClosureIn@c_GradientPumpType@AdvionLCObjects@@QEAAAEAVc_ContactClosureIn@2@AEBV32@@Z
     598  0x49430  ?assign_contactClosureIn@c_GradientPumpType@AdvionLCObjects@@QEAAAEAVc_ContactClosureIn@2@PEAV32@@Z
     599  0xf26d0  ?assign_contactClosureIn@c_MethodType@AdvionObjects@@QEAAAEAVc_ContactClosureIn@2@AEBV32@@Z
     600  0xf2710  ?assign_contactClosureIn@c_MethodType@AdvionObjects@@QEAAAEAVc_ContactClosureIn@2@PEAV32@@Z
     601  0xf2760  ?assign_contactClosuresOut@c_MethodType@AdvionObjects@@QEAAAEAVc_ContactClosuresOut@2@AEBV32@@Z
     602  0xf27a0  ?assign_contactClosuresOut@c_MethodType@AdvionObjects@@QEAAAEAVc_ContactClosuresOut@2@PEAV32@@Z
     603  0x49480  ?assign_cooling@c_AvantSamplerMethodType@AdvionLCObjects@@QEAAAEAVc_AvantSamplerCooling@2@AEBV32@@Z
     604  0x494c0  ?assign_cooling@c_AvantSamplerMethodType@AdvionLCObjects@@QEAAAEAVc_AvantSamplerCooling@2@PEAV32@@Z
     605  0xf27f0  ?assign_currentFilter@c_GraphInfo@AdvionObjects@@QEAAAEAVc_Filter@2@AEBV32@@Z
     606  0xf2830  ?assign_currentFilter@c_GraphInfo@AdvionObjects@@QEAAAEAVc_Filter@2@PEAV32@@Z
     607  0xf2870  ?assign_defaultStandard@c_SemiQuantSettings@AdvionObjects@@QEAAAEAVc_SemiQuantStandard@2@_KAEBV32@@Z
     608  0xf28c0  ?assign_defaultStandard@c_SemiQuantSettings@AdvionObjects@@QEAAAEAVc_SemiQuantStandard@2@_KPEAV32@@Z
     609  0xf2910  ?assign_deltaBackgroundParameters@c_RangeScanMode@AdvionObjects@@QEAAAEAVc_DeltaBackgroundParameters@2@AEBV32@@Z
     610  0xf2950  ?assign_deltaBackgroundParameters@c_RangeScanMode@AdvionObjects@@QEAAAEAVc_DeltaBackgroundParameters@2@PEAV32@@Z
     611  0x49500  ?assign_diverterValve@c_AdvionColumnOvenMethodType@AdvionLCObjects@@QEAAAEAVc_DiverterValveMethod@2@AEBV32@@Z
     612  0x49540  ?assign_diverterValve@c_AdvionColumnOvenMethodType@AdvionLCObjects@@QEAAAEAVc_DiverterValveMethod@2@PEAV32@@Z
     613  0xf2990  ?assign_filter@c_AnalyteSettings@AdvionObjects@@QEAAAEAVc_Filter@2@_KAEBV32@@Z
     614  0xf29e0  ?assign_filter@c_AnalyteSettings@AdvionObjects@@QEAAAEAVc_Filter@2@_KPEAV32@@Z
     615  0x49580  ?assign_gradient@c_GradientPumpType@AdvionLCObjects@@QEAAAEAVc_GradientMethod@2@_KAEBV32@@Z
     616  0x495d0  ?assign_gradient@c_GradientPumpType@AdvionLCObjects@@QEAAAEAVc_GradientMethod@2@_KPEAV32@@Z
     617  0x49620  ?assign_injection@c_AvantSamplerMethodType@AdvionLCObjects@@QEAAAEAVc_AvantSamplerInjection@2@AEBV32@@Z
     618  0x49660  ?assign_injection@c_AvantSamplerMethodType@AdvionLCObjects@@QEAAAEAVc_AvantSamplerInjection@2@PEAV32@@Z
     619  0xf2a30  ?assign_input@c_AnalogInputs@AdvionObjects@@QEAAAEAVc_AnalogInput@2@_KAEBV32@@Z
     620  0xf2a80  ?assign_input@c_AnalogInputs@AdvionObjects@@QEAAAEAVc_AnalogInput@2@_KPEAV32@@Z
     621  0xf2ad0  ?assign_integrationPoint@c_GlobalPeakDetection@AdvionObjects@@QEAAAEAVc_IntegrationPoint@2@_KAEBV32@@Z
     622  0xf2b20  ?assign_integrationPoint@c_GlobalPeakDetection@AdvionObjects@@QEAAAEAVc_IntegrationPoint@2@_KPEAV32@@Z
     623  0xf2b70  ?assign_internalStandard@c_QuantitationType@AdvionObjects@@QEAAAEAVc_Analyte@2@_KAEBV32@@Z
     624  0xf2bc0  ?assign_internalStandard@c_QuantitationType@AdvionObjects@@QEAAAEAVc_Analyte@2@_KPEAV32@@Z
     625  0x68ef0  ?assign_ionSource@c_ionSourceOptimization@AdvionObjects@@QEAAAEAVc_IonSource@2@AEBV32@@Z
     626  0x68f30  ?assign_ionSource@c_ionSourceOptimization@AdvionObjects@@QEAAAEAVc_IonSource@2@PEAV32@@Z
     627  0xf2c10  ?assign_isotope@c_SemiQuantStandard@AdvionObjects@@QEAAAEAVc_SemiQuantIsotope@2@AEBV32@@Z
     628  0xf2c50  ?assign_isotope@c_SemiQuantStandard@AdvionObjects@@QEAAAEAVc_SemiQuantIsotope@2@PEAV32@@Z
     629 0x13eed0  ?assign_massCalibration@c_CmsTuneParametersType@AdvionObjects@@QEAAAEAVc_massCalibration@2@AEBV32@@Z
     630 0x13ef10  ?assign_massCalibration@c_CmsTuneParametersType@AdvionObjects@@QEAAAEAVc_massCalibration@2@PEAV32@@Z
     631  0xf2c90  ?assign_massOfInterest@c_SIMScanMode@AdvionObjects@@QEAAAEAVc_MassOfInterest@2@_KAEBV32@@Z
     632  0xf2ce0  ?assign_massOfInterest@c_SIMScanMode@AdvionObjects@@QEAAAEAVc_MassOfInterest@2@_KPEAV32@@Z
     633  0xf2d30  ?assign_openTrigger@c_ContactClosureOut@AdvionObjects@@QEAAAEAVc_ClosureOutTrigger@2@AEBV32@@Z
     634  0xf2d70  ?assign_openTrigger@c_ContactClosureOut@AdvionObjects@@QEAAAEAVc_ClosureOutTrigger@2@PEAV32@@Z
     635  0xf2db0  ?assign_output@c_AnalogOutputs@AdvionObjects@@QEAAAEAVc_AnalogOutput@2@_KAEBV32@@Z
     636  0xf2e00  ?assign_output@c_AnalogOutputs@AdvionObjects@@QEAAAEAVc_AnalogOutput@2@_KPEAV32@@Z
     637  0xf2e50  ?assign_parentChromInfo@c_processMethod@AdvionObjects@@QEAAAEAVc_ParentChromGraphInfo@2@AEBV32@@Z
     638  0xf2e90  ?assign_parentChromInfo@c_processMethod@AdvionObjects@@QEAAAEAVc_ParentChromGraphInfo@2@PEAV32@@Z
     639  0xf2ee0  ?assign_parentSpectrumInfo@c_processMethod@AdvionObjects@@QEAAAEAVc_SpectrumGraphInfo@2@AEBV32@@Z
     640  0xf2f20  ?assign_parentSpectrumInfo@c_processMethod@AdvionObjects@@QEAAAEAVc_SpectrumGraphInfo@2@PEAV32@@Z
     641 0x12f160  ?assign_peak@c_peakList@AdvionObjects@@QEAAAEAVc_Peak@2@_KAEBV32@@Z
     642 0x12f1b0  ?assign_peak@c_peakList@AdvionObjects@@QEAAAEAVc_Peak@2@_KPEAV32@@Z
     643  0xf2f60  ?assign_peakDetection@c_AnalyteSettings@AdvionObjects@@QEAAAEAVc_PeakDetectionType@2@AEBV32@@Z
     644  0xf2fa0  ?assign_peakDetection@c_AnalyteSettings@AdvionObjects@@QEAAAEAVc_PeakDetectionType@2@PEAV32@@Z
     645  0xf2ff0  ?assign_peakDetections@c_GraphInfo@AdvionObjects@@QEAAAEAVc_PeakDetectionType@2@_KAEBV32@@Z
     646  0xf3040  ?assign_peakDetections@c_GraphInfo@AdvionObjects@@QEAAAEAVc_PeakDetectionType@2@_KPEAV32@@Z
     647  0x496a0  ?assign_pump@c_AdvionLCMethodType@AdvionLCObjects@@QEAAAEAVc_PumpMethod@2@AEBV32@@Z
     648  0x496e0  ?assign_pump@c_AdvionLCMethodType@AdvionLCObjects@@QEAAAEAVc_PumpMethod@2@PEAV32@@Z
     649  0xf3090  ?assign_quantitation@c_MethodType@AdvionObjects@@QEAAAEAVc_QuantitationType@2@AEBV32@@Z
     650  0xf30d0  ?assign_quantitation@c_MethodType@AdvionObjects@@QEAAAEAVc_QuantitationType@2@PEAV32@@Z
     651  0x49720  ?assign_rangeScanMode@c_AdvionUVMethodType@AdvionLCObjects@@QEAAAEAVc_UVRangeScanMode@2@AEBV32@@Z
     652  0x49760  ?assign_rangeScanMode@c_AdvionUVMethodType@AdvionLCObjects@@QEAAAEAVc_UVRangeScanMode@2@PEAV32@@Z
     653  0x497a0  ?assign_sampler@c_AdvionLCMethodType@AdvionLCObjects@@QEAAAEAVc_SamplerMethod@2@AEBV32@@Z
     654  0x497e0  ?assign_sampler@c_AdvionLCMethodType@AdvionLCObjects@@QEAAAEAVc_SamplerMethod@2@PEAV32@@Z
     655  0xf3120  ?assign_scanMode@c_MethodType@AdvionObjects@@QEAAAEAVc_ScanMode@2@_KAEBV32@@Z
     656  0xf3170  ?assign_scanMode@c_MethodType@AdvionObjects@@QEAAAEAVc_ScanMode@2@_KPEAV32@@Z
     657  0xf31c0  ?assign_scanMode@c_QuantitationType@AdvionObjects@@QEAAAEAVc_QuantScanMode@2@_KAEBV32@@Z
     658  0xf3210  ?assign_scanMode@c_QuantitationType@AdvionObjects@@QEAAAEAVc_QuantScanMode@2@_KPEAV32@@Z
     659 0x13ef60  ?assign_segment@c_calibration@AdvionObjects@@QEAAAEAVc_calibrationSegment@2@_KAEBV32@@Z
     660 0x13efb0  ?assign_segment@c_calibration@AdvionObjects@@QEAAAEAVc_calibrationSegment@2@_KPEAV32@@Z
     661 0x13f000  ?assign_segment@c_speedCalibration@AdvionObjects@@QEAAAEAVc_calibrationSegment@2@_KAEBV32@@Z
     662 0x13f050  ?assign_segment@c_speedCalibration@AdvionObjects@@QEAAAEAVc_calibrationSegment@2@_KPEAV32@@Z
     663  0xf3260  ?assign_semiQuantSettings@c_QuantitationType@AdvionObjects@@QEAAAEAVc_SemiQuantSettings@2@AEBV32@@Z
     664  0xf32a0  ?assign_semiQuantSettings@c_QuantitationType@AdvionObjects@@QEAAAEAVc_SemiQuantSettings@2@PEAV32@@Z
     665  0xf32f0  ?assign_settings@c_Analyte@AdvionObjects@@QEAAAEAVc_AnalyteSettings@2@_KAEBV32@@Z
     666  0xf3340  ?assign_settings@c_Analyte@AdvionObjects@@QEAAAEAVc_AnalyteSettings@2@_KPEAV32@@Z
     667  0xf3390  ?assign_setup@c_peakDetection@AdvionObjects@@QEAAAEAVc_PeakDetectionType@2@AEBV32@@Z
     668  0xf33d0  ?assign_setup@c_peakDetection@AdvionObjects@@QEAAAEAVc_PeakDetectionType@2@PEAV32@@Z
     669  0xf3410  ?assign_smoothing@c_AnalogOutput@AdvionObjects@@QEAAAEAVc_AnalogOutputSmoothing@2@AEBV32@@Z
     670  0xf3450  ?assign_smoothing@c_AnalogOutput@AdvionObjects@@QEAAAEAVc_AnalogOutputSmoothing@2@PEAV32@@Z
     671  0xf3490  ?assign_smoothing@c_MethodType@AdvionObjects@@QEAAAEAVc_Smoothing@2@AEBV32@@Z
     672  0xf34d0  ?assign_smoothing@c_MethodType@AdvionObjects@@QEAAAEAVc_Smoothing@2@PEAV32@@Z
     673  0xf3510  ?assign_spectrumInfos@c_processMethod@AdvionObjects@@QEAAAEAVc_SpectrumGraphInfo@2@_KAEBV32@@Z
     674  0xf3560  ?assign_spectrumInfos@c_processMethod@AdvionObjects@@QEAAAEAVc_SpectrumGraphInfo@2@_KPEAV32@@Z
     675  0x49820  ?assign_start@c_ContactClosureIn@AdvionLCObjects@@QEAAAEAVc_ClosureTriggerIn@2@AEBV32@@Z
     676  0x49860  ?assign_start@c_ContactClosureIn@AdvionLCObjects@@QEAAAEAVc_ClosureTriggerIn@2@PEAV32@@Z
     677  0xf35b0  ?assign_start@c_ContactClosureIn@AdvionObjects@@QEAAAEAVc_ClosureTriggerIn@2@AEBV32@@Z
     678  0xf35f0  ?assign_start@c_ContactClosureIn@AdvionObjects@@QEAAAEAVc_ClosureTriggerIn@2@PEAV32@@Z
     679  0x498a0  ?assign_stop@c_ContactClosureIn@AdvionLCObjects@@QEAAAEAVc_ClosureTriggerIn@2@AEBV32@@Z
     680  0x498e0  ?assign_stop@c_ContactClosureIn@AdvionLCObjects@@QEAAAEAVc_ClosureTriggerIn@2@PEAV32@@Z
     681  0xf3630  ?assign_stop@c_ContactClosureIn@AdvionObjects@@QEAAAEAVc_ClosureTriggerIn@2@AEBV32@@Z
     682  0xf3670  ?assign_stop@c_ContactClosureIn@AdvionObjects@@QEAAAEAVc_ClosureTriggerIn@2@PEAV32@@Z
     683  0x49920  ?assign_uvDetector@c_AdvionLCMethodType@AdvionLCObjects@@QEAAAEAVc_UVDetectorMethod@2@AEBV32@@Z
     684  0x49960  ?assign_uvDetector@c_AdvionLCMethodType@AdvionLCObjects@@QEAAAEAVc_UVDetectorMethod@2@PEAV32@@Z
     685  0x499a0  ?assign_valveWash@c_AvantSamplerMethodType@AdvionLCObjects@@QEAAAEAVc_AvantSamplerValveWash@2@AEBV32@@Z
     686  0x499e0  ?assign_valveWash@c_AvantSamplerMethodType@AdvionLCObjects@@QEAAAEAVc_AvantSamplerValveWash@2@PEAV32@@Z
     687  0x49a20  ?assign_wash@c_AvantSamplerMethodType@AdvionLCObjects@@QEAAAEAVc_AvantSamplerWashLine@2@_KAEBV32@@Z
     688  0x49a70  ?assign_wash@c_AvantSamplerMethodType@AdvionLCObjects@@QEAAAEAVc_AvantSamplerWashLine@2@_KPEAV32@@Z
     689  0xf5870  ?back_additionalInfo@c_MethodType@AdvionObjects@@QEAAAEAVc_AdditionalInfo@2@XZ
     690  0x4a520  ?back_analogOutput@c_AdvionUVMethodType@AdvionLCObjects@@QEAAAEAVc_UVAnalogOutput@2@XZ
     691  0xf58b0  ?back_analyte@c_QuantitationType@AdvionObjects@@QEAAAEAVc_Analyte@2@XZ
     692  0xf58f0  ?back_appliedFilters@c_GraphInfo@AdvionObjects@@QEAAAEAVc_Filter@2@XZ
     693  0xf5930  ?back_backgroundSpectra@c_BackgroundOptions@AdvionObjects@@QEAAAEAVc_BackgroundSpectrum@2@XZ
     694  0xf5970  ?back_backgroundSpectrum@c_GraphInfo@AdvionObjects@@QEAAAEAVc_BackgroundSpectrum@2@XZ
     695 0x13f300  ?back_calibration@c_massCalibration@AdvionObjects@@QEAAAEAVc_speedCalibration@2@XZ
     696  0xf59b0  ?back_calibrationAnalyte@c_CalibrationStandard@AdvionObjects@@QEAAAEAVc_CalibrationAnalyte@2@XZ
     697  0xf59f0  ?back_calibrationStandard@c_QuantitationType@AdvionObjects@@QEAAAEAVc_CalibrationStandard@2@XZ
     698  0x4a560  ?back_channel@c_UVChannelScanMode@AdvionLCObjects@@QEAAAEAVc_UVChannel@2@XZ
     699  0xf5a30  ?back_chromInfos@c_processMethod@AdvionObjects@@QEAAAEAVc_ChromGraphInfo@2@XZ
     700  0xf5a70  ?back_contactClosure@c_ContactClosuresOut@AdvionObjects@@QEAAAEAVc_ContactClosureOut@2@XZ
     701  0xf5ab0  ?back_defaultStandard@c_SemiQuantSettings@AdvionObjects@@QEAAAEAVc_SemiQuantStandard@2@XZ
     702  0xf5af0  ?back_filter@c_AnalyteSettings@AdvionObjects@@QEAAAEAVc_Filter@2@XZ
     703  0x4a5a0  ?back_gradient@c_GradientPumpType@AdvionLCObjects@@QEAAAEAVc_GradientMethod@2@XZ
     704  0xf5b30  ?back_input@c_AnalogInputs@AdvionObjects@@QEAAAEAVc_AnalogInput@2@XZ
     705  0xf5b70  ?back_integrationPoint@c_GlobalPeakDetection@AdvionObjects@@QEAAAEAVc_IntegrationPoint@2@XZ
     706  0xf5bb0  ?back_internalStandard@c_QuantitationType@AdvionObjects@@QEAAAEAVc_Analyte@2@XZ
     707  0xf5bf0  ?back_massOfInterest@c_SIMScanMode@AdvionObjects@@QEAAAEAVc_MassOfInterest@2@XZ
     708  0xf5c30  ?back_output@c_AnalogOutputs@AdvionObjects@@QEAAAEAVc_AnalogOutput@2@XZ
     709 0x12f3e0  ?back_peak@c_peakList@AdvionObjects@@QEAAAEAVc_Peak@2@XZ
     710  0xf5c70  ?back_peakDetections@c_GraphInfo@AdvionObjects@@QEAAAEAVc_PeakDetectionType@2@XZ
     711  0xf5cb0  ?back_scanMode@c_MethodType@AdvionObjects@@QEAAAEAVc_ScanMode@2@XZ
     712  0xf5cf0  ?back_scanMode@c_QuantitationType@AdvionObjects@@QEAAAEAVc_QuantScanMode@2@XZ
     713 0x13f340  ?back_segment@c_calibration@AdvionObjects@@QEAAAEAVc_calibrationSegment@2@XZ
     714 0x13f380  ?back_segment@c_speedCalibration@AdvionObjects@@QEAAAEAVc_calibrationSegment@2@XZ
     715  0xf5d30  ?back_settings@c_Analyte@AdvionObjects@@QEAAAEAVc_AnalyteSettings@2@XZ
     716  0xf5d70  ?back_spectrumInfos@c_processMethod@AdvionObjects@@QEAAAEAVc_SpectrumGraphInfo@2@XZ
     717  0x4a5e0  ?back_wash@c_AvantSamplerMethodType@AdvionLCObjects@@QEAAAEAVc_AvantSamplerWashLine@2@XZ
     718  0x76660  ?check@c_AdditionalInfo@AdvionObjects@@QEBA_NPEAVc_check_tracker@lmx@@PEBD@Z
     719  0x199d0  ?check@c_AdvionColumnOvenMethodType@AdvionLCObjects@@QEBA_NPEAVc_check_tracker@lmx@@PEBD@Z
     720  0x17840  ?check@c_AdvionLCMethod@AdvionLCObjects@@QEBA_NPEAVc_check_tracker@lmx@@PEBD@Z
     721  0x16210  ?check@c_AdvionLCMethodType@AdvionLCObjects@@QEBA_NPEAVc_check_tracker@lmx@@PEBD@Z
     722  0x1d320  ?check@c_AdvionUVMethodType@AdvionLCObjects@@QEBA_NPEAVc_check_tracker@lmx@@PEBD@Z
     723  0x1c460  ?check@c_AliasMethodType@AdvionLCObjects@@QEBA_NPEAVc_check_tracker@lmx@@PEBD@Z
     724  0x6dcb0  ?check@c_AnalogInput@AdvionObjects@@QEBA_NPEAVc_check_tracker@lmx@@PEBD@Z
     725  0x871b0  ?check@c_AnalogInputs@AdvionObjects@@QEBA_NPEAVc_check_tracker@lmx@@PEBD@Z
     726  0x82190  ?check@c_AnalogOutput@AdvionObjects@@QEBA_NPEAVc_check_tracker@lmx@@PEBD@Z
     727  0x80660  ?check@c_AnalogOutputSmoothing@AdvionObjects@@QEBA_NPEAVc_check_tracker@lmx@@PEBD@Z
     728  0x97960  ?check@c_AnalogOutputs@AdvionObjects@@QEBA_NPEAVc_check_tracker@lmx@@PEBD@Z
     729  0x9b060  ?check@c_Analyte@AdvionObjects@@QEBA_NPEAVc_check_tracker@lmx@@PEBD@Z
     730  0x8bae0  ?check@c_AnalyteSettings@AdvionObjects@@QEBA_NPEAVc_check_tracker@lmx@@PEBD@Z
     731  0x62fc0  ?check@c_ApciSource@AdvionObjects@@QEBA_NPEAVc_check_tracker@lmx@@PEBD@Z
     732  0x11580  ?check@c_AvantSamplerCooling@AdvionLCObjects@@QEBA_NPEAVc_check_tracker@lmx@@PEBD@Z
     733   0xf2f0  ?check@c_AvantSamplerInjection@AdvionLCObjects@@QEBA_NPEAVc_check_tracker@lmx@@PEBD@Z
     734  0x1b5e0  ?check@c_AvantSamplerMethodType@AdvionLCObjects@@QEBA_NPEAVc_check_tracker@lmx@@PEBD@Z
     735  0x12090  ?check@c_AvantSamplerValveWash@AdvionLCObjects@@QEBA_NPEAVc_check_tracker@lmx@@PEBD@Z
     736  0x10920  ?check@c_AvantSamplerWashLine@AdvionLCObjects@@QEBA_NPEAVc_check_tracker@lmx@@PEBD@Z
     737  0x8f7d0  ?check@c_BackgroundOptions@AdvionObjects@@QEBA_NPEAVc_check_tracker@lmx@@PEBD@Z
     738  0x7b8e0  ?check@c_BackgroundSpectrum@AdvionObjects@@QEBA_NPEAVc_check_tracker@lmx@@PEBD@Z
     739  0x92e70  ?check@c_BackgroundSpectrumGraphInfo@AdvionObjects@@QEBA_NPEAVc_check_tracker@lmx@@PEBD@Z
     740  0x96230  ?check@c_BasePeakChromGraphInfo@AdvionObjects@@QEBA_NPEAVc_check_tracker@lmx@@PEBD@Z
     741  0x7f120  ?check@c_BaselineRemoval@AdvionObjects@@QEBA_NPEAVc_check_tracker@lmx@@PEBD@Z
     742  0x7c900  ?check@c_BoxFilter@AdvionObjects@@QEBA_NPEAVc_check_tracker@lmx@@PEBD@Z
     743  0x77d70  ?check@c_CalibrationAnalyte@AdvionObjects@@QEBA_NPEAVc_check_tracker@lmx@@PEBD@Z
     744  0x89930  ?check@c_CalibrationStandard@AdvionObjects@@QEBA_NPEAVc_check_tracker@lmx@@PEBD@Z
     745  0x93990  ?check@c_ChromGraphInfo@AdvionObjects@@QEBA_NPEAVc_check_tracker@lmx@@PEBD@Z
     746  0x6ebc0  ?check@c_ClosureOutTrigger@AdvionObjects@@QEBA_NPEAVc_check_tracker@lmx@@PEBD@Z
     747   0xd990  ?check@c_ClosureTriggerIn@AdvionLCObjects@@QEBA_NPEAVc_check_tracker@lmx@@PEBD@Z
     748  0x77250  ?check@c_ClosureTriggerIn@AdvionObjects@@QEBA_NPEAVc_check_tracker@lmx@@PEBD@Z
     749 0x1359f0  ?check@c_CmsTuneParametersType@AdvionObjects@@QEBA_NPEAVc_check_tracker@lmx@@PEBD@Z
     750   0x6e20  ?check@c_ColumnOvenMethod@AdvionLCObjects@@QEBA_NPEAVc_check_tracker@lmx@@PEBD@Z
     751  0x1a900  ?check@c_ContactClosureIn@AdvionLCObjects@@QEBA_NPEAVc_check_tracker@lmx@@PEBD@Z
     752  0x88bd0  ?check@c_ContactClosureIn@AdvionObjects@@QEBA_NPEAVc_check_tracker@lmx@@PEBD@Z
     753  0x87d20  ?check@c_ContactClosureOut@AdvionObjects@@QEBA_NPEAVc_check_tracker@lmx@@PEBD@Z
     754  0x98670  ?check@c_ContactClosuresOut@AdvionObjects@@QEBA_NPEAVc_check_tracker@lmx@@PEBD@Z
     755  0x647d0  ?check@c_DartSource@AdvionObjects@@QEBA_NPEAVc_check_tracker@lmx@@PEBD@Z
     756  0x6aed0  ?check@c_DeltaBackgroundParameters@AdvionObjects@@QEBA_NPEAVc_check_tracker@lmx@@PEBD@Z
     757  0x85dc0  ?check@c_DeltaICAnalogOutput@AdvionObjects@@QEBA_NPEAVc_check_tracker@lmx@@PEBD@Z
     758  0x75390  ?check@c_DeltaICPeakTrigger@AdvionObjects@@QEBA_NPEAVc_check_tracker@lmx@@PEBD@Z
     759  0x866a0  ?check@c_DeltaXICAnalogOutput@AdvionObjects@@QEBA_NPEAVc_check_tracker@lmx@@PEBD@Z
     760  0x75c70  ?check@c_DeltaXICPeakTrigger@AdvionObjects@@QEBA_NPEAVc_check_tracker@lmx@@PEBD@Z
     761   0xc0d0  ?check@c_DiverterValveMethod@AdvionLCObjects@@QEBA_NPEAVc_check_tracker@lmx@@PEBD@Z
     762  0x63cd0  ?check@c_EsiSource@AdvionObjects@@QEBA_NPEAVc_check_tracker@lmx@@PEBD@Z
     763  0x83f00  ?check@c_ExtractedAnalogOutput@AdvionObjects@@QEBA_NPEAVc_check_tracker@lmx@@PEBD@Z
     764  0x734d0  ?check@c_ExtractedPeakTrigger@AdvionObjects@@QEBA_NPEAVc_check_tracker@lmx@@PEBD@Z
     765  0x7c120  ?check@c_Filter@AdvionObjects@@QEBA_NPEAVc_check_tracker@lmx@@PEBD@Z
     766  0x8e670  ?check@c_GlobalPeakDetection@AdvionObjects@@QEBA_NPEAVc_check_tracker@lmx@@PEBD@Z
     767   0xcca0  ?check@c_GradientMethod@AdvionLCObjects@@QEBA_NPEAVc_check_tracker@lmx@@PEBD@Z
     768  0x1f220  ?check@c_GradientPumpType@AdvionLCObjects@@QEBA_NPEAVc_check_tracker@lmx@@PEBD@Z
     769  0x90a20  ?check@c_GraphInfo@AdvionObjects@@QEBA_NPEAVc_check_tracker@lmx@@PEBD@Z
     770 0x126c40  ?check@c_IntegrationBaseline@AdvionObjects@@QEBA_NPEAVc_check_tracker@lmx@@PEBD@Z
     771  0x7ad60  ?check@c_IntegrationPoint@AdvionObjects@@QEBA_NPEAVc_check_tracker@lmx@@PEBD@Z
     772  0x62630  ?check@c_IonSource@AdvionObjects@@QEBA_NPEAVc_check_tracker@lmx@@PEBD@Z
     773  0x6c0e0  ?check@c_MassOfInterest@AdvionObjects@@QEBA_NPEAVc_check_tracker@lmx@@PEBD@Z
     774  0xa0f40  ?check@c_MethodType@AdvionObjects@@QEBA_NPEAVc_check_tracker@lmx@@PEBD@Z
     775  0x942f0  ?check@c_ParentChromGraphInfo@AdvionObjects@@QEBA_NPEAVc_check_tracker@lmx@@PEBD@Z
     776 0x127c80  ?check@c_Peak@AdvionObjects@@QEBA_NPEAVc_check_tracker@lmx@@PEBD@Z
     777  0x7a0c0  ?check@c_PeakDetectionType@AdvionObjects@@QEBA_NPEAVc_check_tracker@lmx@@PEBD@Z
     778  0x71870  ?check@c_PeakTrigger@AdvionObjects@@QEBA_NPEAVc_check_tracker@lmx@@PEBD@Z
     779   0x60e0  ?check@c_PumpMethod@AdvionLCObjects@@QEBA_NPEAVc_check_tracker@lmx@@PEBD@Z
     780  0x796d0  ?check@c_QuantScanMode@AdvionObjects@@QEBA_NPEAVc_check_tracker@lmx@@PEBD@Z
     781  0x9f0c0  ?check@c_QuantitationType@AdvionObjects@@QEBA_NPEAVc_check_tracker@lmx@@PEBD@Z
     782  0x7d740  ?check@c_RangeScanMode@AdvionObjects@@QEBA_NPEAVc_check_tracker@lmx@@PEBD@Z
     783  0x70190  ?check@c_RepeatTimeTrigger@AdvionObjects@@QEBA_NPEAVc_check_tracker@lmx@@PEBD@Z
     784  0x853d0  ?check@c_SIMAnalogOutput@AdvionObjects@@QEBA_NPEAVc_check_tracker@lmx@@PEBD@Z
     785  0x749a0  ?check@c_SIMPeakTrigger@AdvionObjects@@QEBA_NPEAVc_check_tracker@lmx@@PEBD@Z
     786  0x7e5f0  ?check@c_SIMScanMode@AdvionObjects@@QEBA_NPEAVc_check_tracker@lmx@@PEBD@Z
     787   0x67b0  ?check@c_SamplerMethod@AdvionLCObjects@@QEBA_NPEAVc_check_tracker@lmx@@PEBD@Z
     788  0x96d80  ?check@c_ScalarChannelChromGraphInfo@AdvionObjects@@QEBA_NPEAVc_check_tracker@lmx@@PEBD@Z
     789  0x6a330  ?check@c_ScanMode@AdvionObjects@@QEBA_NPEAVc_check_tracker@lmx@@PEBD@Z
     790  0x78920  ?check@c_SemiQuantIsotope@AdvionObjects@@QEBA_NPEAVc_check_tracker@lmx@@PEBD@Z
     791  0x99180  ?check@c_SemiQuantSettings@AdvionObjects@@QEBA_NPEAVc_check_tracker@lmx@@PEBD@Z
     792  0x8a5c0  ?check@c_SemiQuantStandard@AdvionObjects@@QEBA_NPEAVc_check_tracker@lmx@@PEBD@Z
     793  0x6cf50  ?check@c_Smoothing@AdvionObjects@@QEBA_NPEAVc_check_tracker@lmx@@PEBD@Z
     794  0x922c0  ?check@c_SpectrumGraphInfo@AdvionObjects@@QEBA_NPEAVc_check_tracker@lmx@@PEBD@Z
     795  0x833b0  ?check@c_TICAnalogOutput@AdvionObjects@@QEBA_NPEAVc_check_tracker@lmx@@PEBD@Z
     796  0x94c70  ?check@c_TICChromGraphInfo@AdvionObjects@@QEBA_NPEAVc_check_tracker@lmx@@PEBD@Z
     797  0x72980  ?check@c_TICPeakTrigger@AdvionObjects@@QEBA_NPEAVc_check_tracker@lmx@@PEBD@Z
     798  0x7fae0  ?check@c_TimeBaselineRemoval@AdvionObjects@@QEBA_NPEAVc_check_tracker@lmx@@PEBD@Z
     799  0x6f510  ?check@c_TimeTrigger@AdvionObjects@@QEBA_NPEAVc_check_tracker@lmx@@PEBD@Z
     800  0x80f70  ?check@c_TriangleAnalogOutputSmoothing@AdvionObjects@@QEBA_NPEAVc_check_tracker@lmx@@PEBD@Z
     801   0xa730  ?check@c_UVAnalogOutput@AdvionLCObjects@@QEBA_NPEAVc_check_tracker@lmx@@PEBD@Z
     802   0x9a20  ?check@c_UVChannel@AdvionLCObjects@@QEBA_NPEAVc_check_tracker@lmx@@PEBD@Z
     803   0xb1c0  ?check@c_UVChannelAnalogOutput@AdvionLCObjects@@QEBA_NPEAVc_check_tracker@lmx@@PEBD@Z
     804  0x188d0  ?check@c_UVChannelScanMode@AdvionLCObjects@@QEBA_NPEAVc_check_tracker@lmx@@PEBD@Z
     805   0x7490  ?check@c_UVDetectorMethod@AdvionLCObjects@@QEBA_NPEAVc_check_tracker@lmx@@PEBD@Z
     806   0x8930  ?check@c_UVRangeScanMode@AdvionLCObjects@@QEBA_NPEAVc_check_tracker@lmx@@PEBD@Z
     807   0x7ce0  ?check@c_UVScanMode@AdvionLCObjects@@QEBA_NPEAVc_check_tracker@lmx@@PEBD@Z
     808  0x849e0  ?check@c_XICAnalogOutput@AdvionObjects@@QEBA_NPEAVc_check_tracker@lmx@@PEBD@Z
     809  0x95680  ?check@c_XICChromGraphInfo@AdvionObjects@@QEBA_NPEAVc_check_tracker@lmx@@PEBD@Z
     810  0x73fb0  ?check@c_XICPeakTrigger@AdvionObjects@@QEBA_NPEAVc_check_tracker@lmx@@PEBD@Z
     811  0x99df0  ?check@c_additionalMasses@c_Analyte@AdvionObjects@@QEBA_NPEAVc_check_tracker@lmx@@PEBD@Z
     812 0x133070  ?check@c_calibration@AdvionObjects@@QEBA_NPEAVc_check_tracker@lmx@@PEBD@Z
     813 0x132530  ?check@c_calibrationSegment@AdvionObjects@@QEBA_NPEAVc_check_tracker@lmx@@PEBD@Z
     814  0x65e70  ?check@c_ionSourceOptimization@AdvionObjects@@QEBA_NPEAVc_check_tracker@lmx@@PEBD@Z
     815 0x1346f0  ?check@c_massCalibration@AdvionObjects@@QEBA_NPEAVc_check_tracker@lmx@@PEBD@Z
     816  0xa2e00  ?check@c_method@AdvionObjects@@QEBA_NPEAVc_check_tracker@lmx@@PEBD@Z
     817  0x8d190  ?check@c_peakDetection@AdvionObjects@@QEBA_NPEAVc_check_tracker@lmx@@PEBD@Z
     818 0x1293e0  ?check@c_peakList@AdvionObjects@@QEBA_NPEAVc_check_tracker@lmx@@PEBD@Z
     819  0x9cb30  ?check@c_processMethod@AdvionObjects@@QEBA_NPEAVc_check_tracker@lmx@@PEBD@Z
     820 0x133b20  ?check@c_speedCalibration@AdvionObjects@@QEBA_NPEAVc_check_tracker@lmx@@PEBD@Z
     821 0x137170  ?check@c_tuneParameters@AdvionObjects@@QEBA_NPEAVc_check_tracker@lmx@@PEBD@Z
     822  0x144e0  ?check@c_uvDetectorDeviceInfo@AdvionLCObjects@@QEBA_NPEAVc_check_tracker@lmx@@PEBD@Z
     823 0x122a00  ?checkVersion@ObjectUtility@AdvionObjects@@KAXAEBV?$basic_string@_WU?$char_traits@_W@std@@V?$allocator@_W@2@@std@@0PEAW4ErrorCode@2@@Z
     824  0xf92b0  ?clear_additionalInfo@c_MethodType@AdvionObjects@@QEAAXXZ
     825  0x4b6b0  ?clear_allowedChannelScanRate@c_uvDetectorDeviceInfo@AdvionLCObjects@@QEAAXXZ
     826  0x4b6f0  ?clear_allowedFilterTime@c_uvDetectorDeviceInfo@AdvionLCObjects@@QEAAXXZ
     827  0x4b730  ?clear_allowedSpectrumScanRate@c_uvDetectorDeviceInfo@AdvionLCObjects@@QEAAXXZ
     828  0x4b770  ?clear_analogOutput@c_AdvionUVMethodType@AdvionLCObjects@@QEAAXXZ
     829  0xf92f0  ?clear_analyte@c_QuantitationType@AdvionObjects@@QEAAXXZ
     830  0xf9330  ?clear_appliedFilters@c_GraphInfo@AdvionObjects@@QEAAXXZ
     831  0xf9370  ?clear_backgroundSpectra@c_BackgroundOptions@AdvionObjects@@QEAAXXZ
     832  0xf93b0  ?clear_backgroundSpectrum@c_GraphInfo@AdvionObjects@@QEAAXXZ
     833 0x13f8e0  ?clear_calibration@c_massCalibration@AdvionObjects@@QEAAXXZ
     834  0xf93f0  ?clear_calibrationAnalyte@c_CalibrationStandard@AdvionObjects@@QEAAXXZ
     835  0xf9430  ?clear_calibrationStandard@c_QuantitationType@AdvionObjects@@QEAAXXZ
     836  0x4b7b0  ?clear_channel@c_UVChannelScanMode@AdvionLCObjects@@QEAAXXZ
     837  0xf9470  ?clear_chromInfos@c_processMethod@AdvionObjects@@QEAAXXZ
     838  0xf94b0  ?clear_contactClosure@c_ContactClosuresOut@AdvionObjects@@QEAAXXZ
     839  0xf94f0  ?clear_defaultStandard@c_SemiQuantSettings@AdvionObjects@@QEAAXXZ
     840  0xf9530  ?clear_filter@c_AnalyteSettings@AdvionObjects@@QEAAXXZ
     841  0x4b7f0  ?clear_gradient@c_GradientPumpType@AdvionLCObjects@@QEAAXXZ
     842  0xf9570  ?clear_input@c_AnalogInputs@AdvionObjects@@QEAAXXZ
     843  0xf95b0  ?clear_integrationPoint@c_GlobalPeakDetection@AdvionObjects@@QEAAXXZ
     844  0xf95f0  ?clear_intensity@c_SemiQuantStandard@AdvionObjects@@QEAAXXZ
     845  0xf9630  ?clear_internalStandard@c_QuantitationType@AdvionObjects@@QEAAXXZ
     846  0xf9670  ?clear_mass@c_additionalMasses@c_Analyte@AdvionObjects@@QEAAXXZ
     847  0xf96b0  ?clear_massOfInterest@c_SIMScanMode@AdvionObjects@@QEAAXXZ
     848  0xf96f0  ?clear_output@c_AnalogOutputs@AdvionObjects@@QEAAXXZ
     849 0x12f710  ?clear_peak@c_peakList@AdvionObjects@@QEAAXXZ
     850  0xf9730  ?clear_peakDetections@c_GraphInfo@AdvionObjects@@QEAAXXZ
     851  0xf9770  ?clear_scanMode@c_MethodType@AdvionObjects@@QEAAXXZ
     852  0xf97b0  ?clear_scanMode@c_QuantitationType@AdvionObjects@@QEAAXXZ
     853 0x13f920  ?clear_segment@c_calibration@AdvionObjects@@QEAAXXZ
     854 0x13f960  ?clear_segment@c_speedCalibration@AdvionObjects@@QEAAXXZ
     855  0xf97f0  ?clear_settings@c_Analyte@AdvionObjects@@QEAAXXZ
     856  0xf9830  ?clear_spectrumInfos@c_processMethod@AdvionObjects@@QEAAXXZ
     857  0x4b830  ?clear_timeEntry@c_DiverterValveMethod@AdvionLCObjects@@QEAAXXZ
     858  0x4b870  ?clear_wash@c_AvantSamplerMethodType@AdvionLCObjects@@QEAAXXZ
     859  0x76410  ?clone@c_AdditionalInfo@AdvionObjects@@UEBAPEAV12@XZ
     860  0x193d0  ?clone@c_AdvionColumnOvenMethodType@AdvionLCObjects@@UEBAPEAV12@XZ
     861  0x171f0  ?clone@c_AdvionLCMethod@AdvionLCObjects@@UEBAPEAV12@XZ
     862  0x16070  ?clone@c_AdvionLCMethodType@AdvionLCObjects@@UEBAPEAV12@XZ
     863  0x1cd00  ?clone@c_AdvionUVMethodType@AdvionLCObjects@@UEBAPEAV12@XZ
     864  0x1c2c0  ?clone@c_AliasMethodType@AdvionLCObjects@@UEBAPEAV12@XZ
     865  0x6d7b0  ?clone@c_AnalogInput@AdvionObjects@@UEBAPEAV12@XZ
     866  0x86de0  ?clone@c_AnalogInputs@AdvionObjects@@UEBAPEAV12@XZ
     867  0x81910  ?clone@c_AnalogOutput@AdvionObjects@@UEBAPEAV12@XZ
     868  0x803e0  ?clone@c_AnalogOutputSmoothing@AdvionObjects@@UEBAPEAV12@XZ
     869  0x97590  ?clone@c_AnalogOutputs@AdvionObjects@@UEBAPEAV12@XZ
     870  0x9a730  ?clone@c_Analyte@AdvionObjects@@UEBAPEAV12@XZ
     871  0x8b110  ?clone@c_AnalyteSettings@AdvionObjects@@UEBAPEAV12@XZ
     872  0x62c40  ?clone@c_ApciSource@AdvionObjects@@UEBAPEAV12@XZ
     873  0x11280  ?clone@c_AvantSamplerCooling@AdvionLCObjects@@UEBAPEAV12@XZ
     874   0xe550  ?clone@c_AvantSamplerInjection@AdvionLCObjects@@UEBAPEAV12@XZ
     875  0x1b250  ?clone@c_AvantSamplerMethodType@AdvionLCObjects@@UEBAPEAV12@XZ
     876  0x11df0  ?clone@c_AvantSamplerValveWash@AdvionLCObjects@@UEBAPEAV12@XZ
     877  0x10220  ?clone@c_AvantSamplerWashLine@AdvionLCObjects@@UEBAPEAV12@XZ
     878  0x8f570  ?clone@c_BackgroundOptions@AdvionObjects@@UEBAPEAV12@XZ
     879  0x7b710  ?clone@c_BackgroundSpectrum@AdvionObjects@@UEBAPEAV12@XZ
     880  0x92cd0  ?clone@c_BackgroundSpectrumGraphInfo@AdvionObjects@@UEBAPEAV12@XZ
     881  0x95fb0  ?clone@c_BasePeakChromGraphInfo@AdvionObjects@@UEBAPEAV12@XZ
     882  0x7eea0  ?clone@c_BaselineRemoval@AdvionObjects@@UEBAPEAV12@XZ
     883  0x7c6a0  ?clone@c_BoxFilter@AdvionObjects@@UEBAPEAV12@XZ
     884  0x77be0  ?clone@c_CalibrationAnalyte@AdvionObjects@@UEBAPEAV12@XZ
     885  0x894e0  ?clone@c_CalibrationStandard@AdvionObjects@@UEBAPEAV12@XZ
     886  0x93570  ?clone@c_ChromGraphInfo@AdvionObjects@@UEBAPEAV12@XZ
     887  0x6e660  ?clone@c_ClosureOutTrigger@AdvionObjects@@UEBAPEAV12@XZ
     888   0xd5c0  ?clone@c_ClosureTriggerIn@AdvionLCObjects@@UEBAPEAV12@XZ
     889  0x76e80  ?clone@c_ClosureTriggerIn@AdvionObjects@@UEBAPEAV12@XZ
     890 0x135150  ?clone@c_CmsTuneParametersType@AdvionObjects@@UEBAPEAV12@XZ
     891   0x6cc0  ?clone@c_ColumnOvenMethod@AdvionLCObjects@@UEBAPEAV12@XZ
     892  0x1a6b0  ?clone@c_ContactClosureIn@AdvionLCObjects@@UEBAPEAV12@XZ
     893  0x88980  ?clone@c_ContactClosureIn@AdvionObjects@@UEBAPEAV12@XZ
     894  0x87a20  ?clone@c_ContactClosureOut@AdvionObjects@@UEBAPEAV12@XZ
     895  0x982a0  ?clone@c_ContactClosuresOut@AdvionObjects@@UEBAPEAV12@XZ
     896  0x645c0  ?clone@c_DartSource@AdvionObjects@@UEBAPEAV12@XZ
     897  0x6a9a0  ?clone@c_DeltaBackgroundParameters@AdvionObjects@@UEBAPEAV12@XZ
     898  0x85c20  ?clone@c_DeltaICAnalogOutput@AdvionObjects@@UEBAPEAV12@XZ
     899  0x751f0  ?clone@c_DeltaICPeakTrigger@AdvionObjects@@UEBAPEAV12@XZ
     900  0x86500  ?clone@c_DeltaXICAnalogOutput@AdvionObjects@@UEBAPEAV12@XZ
     901  0x75ad0  ?clone@c_DeltaXICPeakTrigger@AdvionObjects@@UEBAPEAV12@XZ
     902   0xbbe0  ?clone@c_DiverterValveMethod@AdvionLCObjects@@UEBAPEAV12@XZ
     903  0x639b0  ?clone@c_EsiSource@AdvionObjects@@UEBAPEAV12@XZ
     904  0x83b80  ?clone@c_ExtractedAnalogOutput@AdvionObjects@@UEBAPEAV12@XZ
     905  0x73150  ?clone@c_ExtractedPeakTrigger@AdvionObjects@@UEBAPEAV12@XZ
     906  0x7bfc0  ?clone@c_Filter@AdvionObjects@@UEBAPEAV12@XZ
     907  0x8e180  ?clone@c_GlobalPeakDetection@AdvionObjects@@UEBAPEAV12@XZ
     908   0xc9f0  ?clone@c_GradientMethod@AdvionLCObjects@@UEBAPEAV12@XZ
     909  0x1e840  ?clone@c_GradientPumpType@AdvionLCObjects@@UEBAPEAV12@XZ
     910  0x90340  ?clone@c_GraphInfo@AdvionObjects@@UEBAPEAV12@XZ
     911 0x126820  ?clone@c_IntegrationBaseline@AdvionObjects@@UEBAPEAV12@XZ
     912  0x7a720  ?clone@c_IntegrationPoint@AdvionObjects@@UEBAPEAV12@XZ
     913  0x623f0  ?clone@c_IonSource@AdvionObjects@@UEBAPEAV12@XZ
     914  0x6ba80  ?clone@c_MassOfInterest@AdvionObjects@@UEBAPEAV12@XZ
     915  0xa0890  ?clone@c_MethodType@AdvionObjects@@UEBAPEAV12@XZ
     916  0x940e0  ?clone@c_ParentChromGraphInfo@AdvionObjects@@UEBAPEAV12@XZ
     917 0x127810  ?clone@c_Peak@AdvionObjects@@UEBAPEAV12@XZ
     918  0x79f60  ?clone@c_PeakDetectionType@AdvionObjects@@UEBAPEAV12@XZ
     919  0x70db0  ?clone@c_PeakTrigger@AdvionObjects@@UEBAPEAV12@XZ
     920   0x5f80  ?clone@c_PumpMethod@AdvionLCObjects@@UEBAPEAV12@XZ
     921  0x791e0  ?clone@c_QuantScanMode@AdvionObjects@@UEBAPEAV12@XZ
     922  0x9e730  ?clone@c_QuantitationType@AdvionObjects@@UEBAPEAV12@XZ
     923  0x7d210  ?clone@c_RangeScanMode@AdvionObjects@@UEBAPEAV12@XZ
     924  0x6fdb0  ?clone@c_RepeatTimeTrigger@AdvionObjects@@UEBAPEAV12@XZ
     925  0x85170  ?clone@c_SIMAnalogOutput@AdvionObjects@@UEBAPEAV12@XZ
     926  0x74740  ?clone@c_SIMPeakTrigger@AdvionObjects@@UEBAPEAV12@XZ
     927  0x7e420  ?clone@c_SIMScanMode@AdvionObjects@@UEBAPEAV12@XZ
     928   0x65f0  ?clone@c_SamplerMethod@AdvionLCObjects@@UEBAPEAV12@XZ
     929  0x96b20  ?clone@c_ScalarChannelChromGraphInfo@AdvionObjects@@UEBAPEAV12@XZ
     930  0x6a170  ?clone@c_ScanMode@AdvionObjects@@UEBAPEAV12@XZ
     931  0x78580  ?clone@c_SemiQuantIsotope@AdvionObjects@@UEBAPEAV12@XZ
     932  0x98f10  ?clone@c_SemiQuantSettings@AdvionObjects@@UEBAPEAV12@XZ
     933  0x8a310  ?clone@c_SemiQuantStandard@AdvionObjects@@UEBAPEAV12@XZ
     934  0x6cc60  ?clone@c_Smoothing@AdvionObjects@@UEBAPEAV12@XZ
     935  0x91e60  ?clone@c_SpectrumGraphInfo@AdvionObjects@@UEBAPEAV12@XZ
     936  0x83210  ?clone@c_TICAnalogOutput@AdvionObjects@@UEBAPEAV12@XZ
     937  0x94ad0  ?clone@c_TICChromGraphInfo@AdvionObjects@@UEBAPEAV12@XZ
     938  0x727e0  ?clone@c_TICPeakTrigger@AdvionObjects@@UEBAPEAV12@XZ
     939  0x7f860  ?clone@c_TimeBaselineRemoval@AdvionObjects@@UEBAPEAV12@XZ
     940  0x6f2b0  ?clone@c_TimeTrigger@AdvionObjects@@UEBAPEAV12@XZ
     941  0x80d60  ?clone@c_TriangleAnalogOutputSmoothing@AdvionObjects@@UEBAPEAV12@XZ
     942   0xa4b0  ?clone@c_UVAnalogOutput@AdvionLCObjects@@UEBAPEAV12@XZ
     943   0x9630  ?clone@c_UVChannel@AdvionLCObjects@@UEBAPEAV12@XZ
     944   0xae80  ?clone@c_UVChannelAnalogOutput@AdvionLCObjects@@UEBAPEAV12@XZ
     945  0x184d0  ?clone@c_UVChannelScanMode@AdvionLCObjects@@UEBAPEAV12@XZ
     946   0x7330  ?clone@c_UVDetectorMethod@AdvionLCObjects@@UEBAPEAV12@XZ
     947   0x8510  ?clone@c_UVRangeScanMode@AdvionLCObjects@@UEBAPEAV12@XZ
     948   0x7a00  ?clone@c_UVScanMode@AdvionLCObjects@@UEBAPEAV12@XZ
     949  0x84840  ?clone@c_XICAnalogOutput@AdvionObjects@@UEBAPEAV12@XZ
     950  0x95400  ?clone@c_XICChromGraphInfo@AdvionObjects@@UEBAPEAV12@XZ
     951  0x73e10  ?clone@c_XICPeakTrigger@AdvionObjects@@UEBAPEAV12@XZ
     952  0x99b10  ?clone@c_additionalMasses@c_Analyte@AdvionObjects@@UEBAPEAV123@XZ
     953 0x132e90  ?clone@c_calibration@AdvionObjects@@UEBAPEAV12@XZ
     954 0x132200  ?clone@c_calibrationSegment@AdvionObjects@@UEBAPEAV12@XZ
     955  0x651b0  ?clone@c_ionSourceOptimization@AdvionObjects@@UEBAPEAV12@XZ
     956 0x134510  ?clone@c_massCalibration@AdvionObjects@@UEBAPEAV12@XZ
     957  0xa27b0  ?clone@c_method@AdvionObjects@@UEBAPEAV12@XZ
     958  0x8cbc0  ?clone@c_peakDetection@AdvionObjects@@UEBAPEAV12@XZ
     959 0x128a50  ?clone@c_peakList@AdvionObjects@@UEBAPEAV12@XZ
     960  0x9c2c0  ?clone@c_processMethod@AdvionObjects@@UEBAPEAV12@XZ
     961 0x133880  ?clone@c_speedCalibration@AdvionObjects@@UEBAPEAV12@XZ
     962 0x136b20  ?clone@c_tuneParameters@AdvionObjects@@UEBAPEAV12@XZ
     963  0x12d80  ?clone@c_uvDetectorDeviceInfo@AdvionLCObjects@@UEBAPEAV12@XZ
     964  0xfac00  ?delete_additionalInfo@c_MethodType@AdvionObjects@@QEAAX_K@Z
     965  0x4c9f0  ?delete_allowedChannelScanRate@c_uvDetectorDeviceInfo@AdvionLCObjects@@QEAAX_K@Z
     966  0x4ca40  ?delete_allowedFilterTime@c_uvDetectorDeviceInfo@AdvionLCObjects@@QEAAX_K@Z
     967  0x4ca90  ?delete_allowedSpectrumScanRate@c_uvDetectorDeviceInfo@AdvionLCObjects@@QEAAX_K@Z
     968  0x4cae0  ?delete_analogOutput@c_AdvionUVMethodType@AdvionLCObjects@@QEAAX_K@Z
     969  0xfac80  ?delete_analyte@c_QuantitationType@AdvionObjects@@QEAAX_K@Z
     970  0xfad00  ?delete_appliedFilters@c_GraphInfo@AdvionObjects@@QEAAX_K@Z
     971  0xfad80  ?delete_backgroundSpectra@c_BackgroundOptions@AdvionObjects@@QEAAX_K@Z
     972  0xfae00  ?delete_backgroundSpectrum@c_GraphInfo@AdvionObjects@@QEAAX_K@Z
     973 0x13fa80  ?delete_calibration@c_massCalibration@AdvionObjects@@QEAAX_K@Z
     974  0xfae80  ?delete_calibrationAnalyte@c_CalibrationStandard@AdvionObjects@@QEAAX_K@Z
     975  0xfaf00  ?delete_calibrationStandard@c_QuantitationType@AdvionObjects@@QEAAX_K@Z
     976  0x4cb60  ?delete_channel@c_UVChannelScanMode@AdvionLCObjects@@QEAAX_K@Z
     977  0xfaf80  ?delete_chromInfos@c_processMethod@AdvionObjects@@QEAAX_K@Z
     978  0xfb000  ?delete_contactClosure@c_ContactClosuresOut@AdvionObjects@@QEAAX_K@Z
     979  0xfb080  ?delete_defaultStandard@c_SemiQuantSettings@AdvionObjects@@QEAAX_K@Z
     980  0xfb100  ?delete_filter@c_AnalyteSettings@AdvionObjects@@QEAAX_K@Z
     981  0x4cbe0  ?delete_gradient@c_GradientPumpType@AdvionLCObjects@@QEAAX_K@Z
     982  0xfb180  ?delete_input@c_AnalogInputs@AdvionObjects@@QEAAX_K@Z
     983  0xfb200  ?delete_integrationPoint@c_GlobalPeakDetection@AdvionObjects@@QEAAX_K@Z
     984  0xfb280  ?delete_intensity@c_SemiQuantStandard@AdvionObjects@@QEAAX_K@Z
     985  0xfb2c0  ?delete_internalStandard@c_QuantitationType@AdvionObjects@@QEAAX_K@Z
     986  0xfb340  ?delete_mass@c_additionalMasses@c_Analyte@AdvionObjects@@QEAAX_K@Z
     987  0xfb380  ?delete_massOfInterest@c_SIMScanMode@AdvionObjects@@QEAAX_K@Z
     988  0xfb400  ?delete_output@c_AnalogOutputs@AdvionObjects@@QEAAX_K@Z
     989 0x12f860  ?delete_peak@c_peakList@AdvionObjects@@QEAAX_K@Z
     990  0xfb480  ?delete_peakDetections@c_GraphInfo@AdvionObjects@@QEAAX_K@Z
     991  0xfb500  ?delete_scanMode@c_MethodType@AdvionObjects@@QEAAX_K@Z
     992  0xfb580  ?delete_scanMode@c_QuantitationType@AdvionObjects@@QEAAX_K@Z
     993 0x13fb00  ?delete_segment@c_calibration@AdvionObjects@@QEAAX_K@Z
     994 0x13fb80  ?delete_segment@c_speedCalibration@AdvionObjects@@QEAAX_K@Z
     995  0xfb600  ?delete_settings@c_Analyte@AdvionObjects@@QEAAX_K@Z
     996  0xfb680  ?delete_spectrumInfos@c_processMethod@AdvionObjects@@QEAAX_K@Z
     997  0x4cc60  ?delete_timeEntry@c_DiverterValveMethod@AdvionLCObjects@@QEAAX_K@Z
     998  0x4cca0  ?delete_wash@c_AvantSamplerMethodType@AdvionLCObjects@@QEAAX_K@Z
     999  0x81b30  ?factory@c_AnalogOutput@AdvionObjects@@SAPEAV12@HAEBV?$basic_string@DU?$char_traits@D@std@@V?$allocator@D@2@@std@@@Z
    1000  0x80500  ?factory@c_AnalogOutputSmoothing@AdvionObjects@@SAPEAV12@HAEBV?$basic_string@DU?$char_traits@D@std@@V?$allocator@D@2@@std@@@Z
    1001  0x1b410  ?factory@c_AvantSamplerMethodType@AdvionLCObjects@@SAPEAV12@HAEBV?$basic_string@DU?$char_traits@D@std@@V?$allocator@D@2@@std@@@Z
    1002  0x7efc0  ?factory@c_BaselineRemoval@AdvionObjects@@SAPEAV12@HAEBV?$basic_string@DU?$char_traits@D@std@@V?$allocator@D@2@@std@@@Z
    1003  0x93680  ?factory@c_ChromGraphInfo@AdvionObjects@@SAPEAV12@HAEBV?$basic_string@DU?$char_traits@D@std@@V?$allocator@D@2@@std@@@Z
    1004  0x6e780  ?factory@c_ClosureOutTrigger@AdvionObjects@@SAPEAV12@HAEBV?$basic_string@DU?$char_traits@D@std@@V?$allocator@D@2@@std@@@Z
    1005   0x6d80  ?factory@c_ColumnOvenMethod@AdvionLCObjects@@SAPEAV12@HAEBV?$basic_string@DU?$char_traits@D@std@@V?$allocator@D@2@@std@@@Z
    1006  0x83cf0  ?factory@c_ExtractedAnalogOutput@AdvionObjects@@SAPEAV12@HAEBV?$basic_string@DU?$char_traits@D@std@@V?$allocator@D@2@@std@@@Z
    1007  0x732c0  ?factory@c_ExtractedPeakTrigger@AdvionObjects@@SAPEAV12@HAEBV?$basic_string@DU?$char_traits@D@std@@V?$allocator@D@2@@std@@@Z
    1008  0x7c080  ?factory@c_Filter@AdvionObjects@@SAPEAV12@HAEBV?$basic_string@DU?$char_traits@D@std@@V?$allocator@D@2@@std@@@Z
    1009  0x905a0  ?factory@c_GraphInfo@AdvionObjects@@SAPEAV12@HAEBV?$basic_string@DU?$char_traits@D@std@@V?$allocator@D@2@@std@@@Z
    1010  0x624b0  ?factory@c_IonSource@AdvionObjects@@SAPEAV12@HAEBV?$basic_string@DU?$char_traits@D@std@@V?$allocator@D@2@@std@@@Z
    1011  0x7a020  ?factory@c_PeakDetectionType@AdvionObjects@@SAPEAV12@HAEBV?$basic_string@DU?$char_traits@D@std@@V?$allocator@D@2@@std@@@Z
    1012  0x71040  ?factory@c_PeakTrigger@AdvionObjects@@SAPEAV12@HAEBV?$basic_string@DU?$char_traits@D@std@@V?$allocator@D@2@@std@@@Z
    1013   0x6040  ?factory@c_PumpMethod@AdvionLCObjects@@SAPEAV12@HAEBV?$basic_string@DU?$char_traits@D@std@@V?$allocator@D@2@@std@@@Z
    1014   0x66b0  ?factory@c_SamplerMethod@AdvionLCObjects@@SAPEAV12@HAEBV?$basic_string@DU?$char_traits@D@std@@V?$allocator@D@2@@std@@@Z
    1015  0x6a230  ?factory@c_ScanMode@AdvionObjects@@SAPEAV12@HAEBV?$basic_string@DU?$char_traits@D@std@@V?$allocator@D@2@@std@@@Z
    1016  0x92030  ?factory@c_SpectrumGraphInfo@AdvionObjects@@SAPEAV12@HAEBV?$basic_string@DU?$char_traits@D@std@@V?$allocator@D@2@@std@@@Z
    1017   0xa5d0  ?factory@c_UVAnalogOutput@AdvionLCObjects@@SAPEAV12@HAEBV?$basic_string@DU?$char_traits@D@std@@V?$allocator@D@2@@std@@@Z
    1018   0x73f0  ?factory@c_UVDetectorMethod@AdvionLCObjects@@SAPEAV12@HAEBV?$basic_string@DU?$char_traits@D@std@@V?$allocator@D@2@@std@@@Z
    1019   0x7b20  ?factory@c_UVScanMode@AdvionLCObjects@@SAPEAV12@HAEBV?$basic_string@DU?$char_traits@D@std@@V?$allocator@D@2@@std@@@Z
    1020 0x1044d0  ?get_aboveGradient@c_PeakTrigger@AdvionObjects@@QEBAAEB_NXZ
    1021 0x104510  ?get_aboveThreshold@c_PeakTrigger@AdvionObjects@@QEBAAEB_NXZ
    1022 0x104550  ?get_additionalInfo@c_MethodType@AdvionObjects@@QEAAAEAVc_AdditionalInfo@2@_K@Z
    1023 0x1045a0  ?get_additionalInfo@c_MethodType@AdvionObjects@@QEBAAEBVc_AdditionalInfo@2@_K@Z
    1024  0x9ab20  ?get_additionalMasses@c_Analyte@AdvionObjects@@QEAAAEAVc_additionalMasses@12@XZ
    1025  0x9aae0  ?get_additionalMasses@c_Analyte@AdvionObjects@@QEBAAEBVc_additionalMasses@12@XZ
    1026  0x502a0  ?get_allowedChannelScanRate@c_uvDetectorDeviceInfo@AdvionLCObjects@@QEBAAEBN_K@Z
    1027  0x502f0  ?get_allowedFilterTime@c_uvDetectorDeviceInfo@AdvionLCObjects@@QEBAAEBN_K@Z
    1028  0x50340  ?get_allowedSpectrumScanRate@c_uvDetectorDeviceInfo@AdvionLCObjects@@QEBAAEBN_K@Z
    1029 0x1045f0  ?get_analogInputs@c_MethodType@AdvionObjects@@QEAAAEAVc_AnalogInputs@2@XZ
    1030 0x104630  ?get_analogInputs@c_MethodType@AdvionObjects@@QEBAAEBVc_AnalogInputs@2@XZ
    1031  0x50390  ?get_analogOutput@c_AdvionUVMethodType@AdvionLCObjects@@QEAAAEAVc_UVAnalogOutput@2@_K@Z
    1032  0x50400  ?get_analogOutput@c_AdvionUVMethodType@AdvionLCObjects@@QEBAAEBVc_UVAnalogOutput@2@_K@Z
    1033 0x104670  ?get_analogOutputs@c_MethodType@AdvionObjects@@QEAAAEAVc_AnalogOutputs@2@XZ
    1034 0x1046b0  ?get_analogOutputs@c_MethodType@AdvionObjects@@QEBAAEBVc_AnalogOutputs@2@XZ
    1035  0x50440  ?get_analysisTime@c_AvantSamplerInjection@AdvionLCObjects@@QEBAAEBNXZ
    1036 0x1046f0  ?get_analyte@c_QuantitationType@AdvionObjects@@QEAAAEAVc_Analyte@2@_K@Z
    1037 0x104730  ?get_analyte@c_QuantitationType@AdvionObjects@@QEBAAEBVc_Analyte@2@_K@Z
    1038 0x104770  ?get_analyteId@c_CalibrationAnalyte@AdvionObjects@@QEBAAEBV?$basic_string@_WU?$char_traits@_W@std@@V?$allocator@_W@2@@std@@XZ
    1039 0x1047b0  ?get_appliedFilters@c_GraphInfo@AdvionObjects@@QEAAAEAVc_Filter@2@_K@Z
    1040 0x1047f0  ?get_appliedFilters@c_GraphInfo@AdvionObjects@@QEBAAEBVc_Filter@2@_K@Z
    1041 0x1300c0  ?get_area@c_Peak@AdvionObjects@@QEBAAEBNXZ
    1042 0x104830  ?get_atomicNumber@c_SemiQuantIsotope@AdvionObjects@@QEBAAEBIXZ
    1043  0x50480  ?get_autoZeroAfterAcquisition@c_AdvionUVMethodType@AdvionLCObjects@@QEBAAEB_NXZ
    1044  0x504c0  ?get_autoZeroOnInjection@c_AdvionUVMethodType@AdvionLCObjects@@QEBAAEB_NXZ
    1045 0x104870  ?get_backgroundOptions@c_processMethod@AdvionObjects@@QEAAAEAVc_BackgroundOptions@2@XZ
    1046 0x1048b0  ?get_backgroundOptions@c_processMethod@AdvionObjects@@QEBAAEBVc_BackgroundOptions@2@XZ
    1047 0x1048f0  ?get_backgroundSpectra@c_BackgroundOptions@AdvionObjects@@QEAAAEAVc_BackgroundSpectrum@2@_K@Z
    1048 0x104930  ?get_backgroundSpectra@c_BackgroundOptions@AdvionObjects@@QEBAAEBVc_BackgroundSpectrum@2@_K@Z
    1049 0x104970  ?get_backgroundSpectrum@c_GraphInfo@AdvionObjects@@QEAAAEAVc_BackgroundSpectrum@2@_K@Z
    1050 0x1049b0  ?get_backgroundSpectrum@c_GraphInfo@AdvionObjects@@QEBAAEBVc_BackgroundSpectrum@2@_K@Z
    1051 0x1049f0  ?get_backgroundSubtraction@c_QuantitationType@AdvionObjects@@QEBAAEB_NXZ
    1052  0x50500  ?get_bandwidth@c_UVChannel@AdvionLCObjects@@QEBAAEBNXZ
    1053  0x50540  ?get_bandwidth@c_UVRangeScanMode@AdvionLCObjects@@QEBAAEBNXZ
    1054 0x130100  ?get_baseline@c_Peak@AdvionObjects@@QEAAAEAVc_IntegrationBaseline@2@XZ
    1055 0x130140  ?get_baseline@c_Peak@AdvionObjects@@QEBAAEBVc_IntegrationBaseline@2@XZ
    1056 0x104a30  ?get_baselineRemoval@c_AnalogOutput@AdvionObjects@@QEAAAEAVc_BaselineRemoval@2@XZ
    1057 0x104a70  ?get_baselineRemoval@c_AnalogOutput@AdvionObjects@@QEBAAEBVc_BaselineRemoval@2@XZ
    1058 0x1253e0  ?get_calibration@c_CmsTuneParametersType@AdvionObjects@@QEAAAEAVc_calibration@2@XZ
    1059 0x125420  ?get_calibration@c_CmsTuneParametersType@AdvionObjects@@QEBAAEBVc_calibration@2@XZ
    1060 0x140830  ?get_calibration@c_massCalibration@AdvionObjects@@QEAAAEAVc_speedCalibration@2@_K@Z
    1061 0x125460  ?get_calibration@c_massCalibration@AdvionObjects@@QEBAAEBVc_speedCalibration@2@_K@Z
    1062 0x104ab0  ?get_calibrationAnalyte@c_CalibrationStandard@AdvionObjects@@QEAAAEAVc_CalibrationAnalyte@2@_K@Z
    1063 0x104af0  ?get_calibrationAnalyte@c_CalibrationStandard@AdvionObjects@@QEBAAEBVc_CalibrationAnalyte@2@_K@Z
    1064 0x104b30  ?get_calibrationPath@c_QuantitationType@AdvionObjects@@QEBAAEBV?$basic_string@_WU?$char_traits@_W@std@@V?$allocator@_W@2@@std@@XZ
    1065 0x104b70  ?get_calibrationStandard@c_QuantitationType@AdvionObjects@@QEAAAEAVc_CalibrationStandard@2@_K@Z
    1066 0x104bc0  ?get_calibrationStandard@c_QuantitationType@AdvionObjects@@QEBAAEBVc_CalibrationStandard@2@_K@Z
    1067  0x690e0  ?get_capillaryTemp@c_ionSourceOptimization@AdvionObjects@@QEBAAEBNXZ
    1068  0x69120  ?get_capillaryVoltage@c_ionSourceOptimization@AdvionObjects@@QEBAAEBNXZ
    1069 0x130180  ?get_centroid@c_Peak@AdvionObjects@@QEBAAEBNXZ
    1070  0x50580  ?get_channel@c_UVChannelAnalogOutput@AdvionLCObjects@@QEBAAEBHXZ
    1071  0x505c0  ?get_channel@c_UVChannelScanMode@AdvionLCObjects@@QEAAAEAVc_UVChannel@2@_K@Z
    1072  0x50630  ?get_channel@c_UVChannelScanMode@AdvionLCObjects@@QEBAAEBVc_UVChannel@2@_K@Z
    1073  0x50670  ?get_channelScanMode@c_AdvionUVMethodType@AdvionLCObjects@@QEAAAEAVc_UVChannelScanMode@2@XZ
    1074  0x506b0  ?get_channelScanMode@c_AdvionUVMethodType@AdvionLCObjects@@QEBAAEBVc_UVChannelScanMode@2@XZ
    1075 0x104c10  ?get_chromInfos@c_processMethod@AdvionObjects@@QEAAAEAVc_ChromGraphInfo@2@_K@Z
    1076 0x104c60  ?get_chromInfos@c_processMethod@AdvionObjects@@QEBAAEBVc_ChromGraphInfo@2@_K@Z
    1077 0x104cb0  ?get_closeTimeSeconds@c_RepeatTimeTrigger@AdvionObjects@@QEBAAEBHXZ
    1078 0x104cf0  ?get_closeTrigger@c_ContactClosureOut@AdvionObjects@@QEAAAEAVc_ClosureOutTrigger@2@XZ
    1079 0x104d30  ?get_closeTrigger@c_ContactClosureOut@AdvionObjects@@QEBAAEBVc_ClosureOutTrigger@2@XZ
    1080  0x506f0  ?get_columnDescription@c_GradientPumpType@AdvionLCObjects@@QEBAAEBV?$basic_string@_WU?$char_traits@_W@std@@V?$allocator@_W@2@@std@@XZ
    1081  0x50730  ?get_columnIndex@c_AdvionColumnOvenMethodType@AdvionLCObjects@@QEBAAEBHXZ
    1082  0x50770  ?get_columnOven@c_AdvionLCMethodType@AdvionLCObjects@@QEAAAEAVc_ColumnOvenMethod@2@XZ
    1083  0x507b0  ?get_columnOven@c_AdvionLCMethodType@AdvionLCObjects@@QEBAAEBVc_ColumnOvenMethod@2@XZ
    1084 0x1301c0  ?get_commonBaseline@c_Peak@AdvionObjects@@QEAAAEAVc_IntegrationBaseline@2@XZ
    1085 0x130200  ?get_commonBaseline@c_Peak@AdvionObjects@@QEBAAEBVc_IntegrationBaseline@2@XZ
    1086 0x104d70  ?get_concentration@c_CalibrationAnalyte@AdvionObjects@@QEBAAEBNXZ
    1087 0x104db0  ?get_concentration@c_SemiQuantStandard@AdvionObjects@@QEBAAEBNXZ
    1088 0x104df0  ?get_concentrationUnits@c_Analyte@AdvionObjects@@QEBAAEBV?$basic_string@_WU?$char_traits@_W@std@@V?$allocator@_W@2@@std@@XZ
    1089 0x104e30  ?get_concentrationUnits@c_SemiQuantSettings@AdvionObjects@@QEBAAEBV?$basic_string@_WU?$char_traits@_W@std@@V?$allocator@_W@2@@std@@XZ
    1090 0x104e70  ?get_contactClosure@c_ContactClosuresOut@AdvionObjects@@QEAAAEAVc_ContactClosureOut@2@_K@Z
    1091 0x104ee0  ?get_contactClosure@c_ContactClosuresOut@AdvionObjects@@QEBAAEBVc_ContactClosureOut@2@_K@Z
    1092  0x507f0  ?get_contactClosureIn@c_GradientPumpType@AdvionLCObjects@@QEAAAEAVc_ContactClosureIn@2@XZ
    1093  0x50830  ?get_contactClosureIn@c_GradientPumpType@AdvionLCObjects@@QEBAAEBVc_ContactClosureIn@2@XZ
    1094 0x104f20  ?get_contactClosureIn@c_MethodType@AdvionObjects@@QEAAAEAVc_ContactClosureIn@2@XZ
    1095 0x104f60  ?get_contactClosureIn@c_MethodType@AdvionObjects@@QEBAAEBVc_ContactClosureIn@2@XZ
    1096 0x104fa0  ?get_contactClosuresOut@c_MethodType@AdvionObjects@@QEAAAEAVc_ContactClosuresOut@2@XZ
    1097 0x104fe0  ?get_contactClosuresOut@c_MethodType@AdvionObjects@@QEBAAEBVc_ContactClosuresOut@2@XZ
    1098  0x50870  ?get_cooling@c_AvantSamplerMethodType@AdvionLCObjects@@QEAAAEAVc_AvantSamplerCooling@2@XZ
    1099  0x508b0  ?get_cooling@c_AvantSamplerMethodType@AdvionLCObjects@@QEBAAEBVc_AvantSamplerCooling@2@XZ
    1100  0x69160  ?get_coronaDischarge@c_ApciSource@AdvionObjects@@QEBAAEBNXZ
    1101 0x105020  ?get_currentFilter@c_GraphInfo@AdvionObjects@@QEAAAEAVc_Filter@2@XZ
    1102 0x105060  ?get_currentFilter@c_GraphInfo@AdvionObjects@@QEBAAEBVc_Filter@2@XZ
    1103 0x1050a0  ?get_defaultStandard@c_SemiQuantSettings@AdvionObjects@@QEAAAEAVc_SemiQuantStandard@2@_K@Z
    1104 0x1050e0  ?get_defaultStandard@c_SemiQuantSettings@AdvionObjects@@QEBAAEBVc_SemiQuantStandard@2@_K@Z
    1105 0x105120  ?get_delay@c_PeakTrigger@AdvionObjects@@QEBAAEBIXZ
    1106  0x508f0  ?get_delayMS@c_ClosureTriggerIn@AdvionLCObjects@@QEBAAEBIXZ
    1107 0x105160  ?get_delayMS@c_ClosureTriggerIn@AdvionObjects@@QEBAAEBIXZ
    1108 0x1051a0  ?get_delaySeconds@c_RepeatTimeTrigger@AdvionObjects@@QEBAAEBHXZ
    1109 0x1051e0  ?get_delta@c_GraphInfo@AdvionObjects@@QEBAAEB_NXZ
    1110 0x105220  ?get_deltaBackgroundParameters@c_RangeScanMode@AdvionObjects@@QEAAAEAVc_DeltaBackgroundParameters@2@XZ
    1111 0x105260  ?get_deltaBackgroundParameters@c_RangeScanMode@AdvionObjects@@QEBAAEBVc_DeltaBackgroundParameters@2@XZ
    1112 0x1052a0  ?get_description@c_MethodType@AdvionObjects@@QEBAAEBV?$basic_string@_WU?$char_traits@_W@std@@V?$allocator@_W@2@@std@@XZ
    1113  0x691a0  ?get_description@c_ionSourceOptimization@AdvionObjects@@QEBAAEBV?$basic_string@_WU?$char_traits@_W@std@@V?$allocator@_W@2@@std@@XZ
    1114 0x140870  ?get_detector@c_CmsTuneParametersType@AdvionObjects@@QEBAAEBNXZ
    1115  0x50930  ?get_diverterValve@c_AdvionColumnOvenMethodType@AdvionLCObjects@@QEAAAEAVc_DiverterValveMethod@2@XZ
    1116  0x50970  ?get_diverterValve@c_AdvionColumnOvenMethodType@AdvionLCObjects@@QEBAAEBVc_DiverterValveMethod@2@XZ
    1117  0x509b0  ?get_drawPositionOffset@c_AvantSamplerInjection@AdvionLCObjects@@QEBAAEBNXZ
    1118 0x1052e0  ?get_dwellTime@c_MassOfInterest@AdvionObjects@@QEBAAEBNXZ
    1119  0x50b70  ?get_enableAnalysis@c_AdvionColumnOvenMethodType@AdvionLCObjects@@QEBAAEBV?$basic_string@_WU?$char_traits@_W@std@@V?$allocator@_W@2@@std@@XZ
    1120 0x105320  ?get_enableMultiple@c_BackgroundOptions@AdvionObjects@@QEBAAEB_NXZ
    1121  0x50bb0  ?get_enableValueWashSynchronization@c_AvantSamplerValveWash@AdvionLCObjects@@QEBAAEB_NXZ
    1122 0x105360  ?get_enabled@c_AnalogInput@AdvionObjects@@QEBAAEB_NXZ
    1123 0x1053a0  ?get_enabled@c_AnalogOutput@AdvionObjects@@QEBAAEB_NXZ
    1124 0x1053e0  ?get_enabled@c_AnalogOutputSmoothing@AdvionObjects@@QEBAAEB_NXZ
    1125  0x50bf0  ?get_enabled@c_AvantSamplerCooling@AdvionLCObjects@@QEBAAEB_NXZ
    1126 0x105420  ?get_enabled@c_BaselineRemoval@AdvionObjects@@QEBAAEB_NXZ
    1127 0x105460  ?get_enabled@c_ClosureOutTrigger@AdvionObjects@@QEBAAEB_NXZ
    1128  0x50c30  ?get_enabled@c_ClosureTriggerIn@AdvionLCObjects@@QEBAAEB_NXZ
    1129 0x1054a0  ?get_enabled@c_ClosureTriggerIn@AdvionObjects@@QEBAAEB_NXZ
    1130  0x50c70  ?get_enabled@c_DiverterValveMethod@AdvionLCObjects@@QEBAAEB_NXZ
    1131  0x50cb0  ?get_enabled@c_UVAnalogOutput@AdvionLCObjects@@QEBAAEB_NXZ
    1132  0x50cf0  ?get_enabled@c_UVChannel@AdvionLCObjects@@QEBAAEB_NXZ
    1133 0x1054e0  ?get_end@c_RangeScanMode@AdvionObjects@@QEBAAEBNXZ
    1134 0x130240  ?get_endIndex@c_IntegrationBaseline@AdvionObjects@@QEBAAEBHXZ
    1135 0x105520  ?get_endMass@c_BasePeakChromGraphInfo@AdvionObjects@@QEBAAEBNXZ
    1136 0x105560  ?get_endMass@c_ExtractedAnalogOutput@AdvionObjects@@QEBAAEBNXZ
    1137 0x1055a0  ?get_endMass@c_ExtractedPeakTrigger@AdvionObjects@@QEBAAEBNXZ
    1138 0x1055e0  ?get_endMass@c_XICChromGraphInfo@AdvionObjects@@QEBAAEBNXZ
    1139 0x105620  ?get_endRetentionTime@c_SpectrumGraphInfo@AdvionObjects@@QEBAAEBNXZ
    1140 0x105660  ?get_endTime@c_BackgroundSpectrum@AdvionObjects@@QEBAAEBNXZ
    1141 0x1056a0  ?get_endTime@c_DeltaBackgroundParameters@AdvionObjects@@QEBAAEBNXZ
    1142  0x50d30  ?get_endWavelength@c_UVRangeScanMode@AdvionLCObjects@@QEBAAEBNXZ
    1143 0x1056e0  ?get_endX@c_GraphInfo@AdvionObjects@@QEBAAEBNXZ
    1144 0x130280  ?get_endX@c_IntegrationBaseline@AdvionObjects@@QEBAAEBNXZ
    1145 0x1302c0  ?get_endY@c_IntegrationBaseline@AdvionObjects@@QEBAAEBNXZ
    1146  0x50d70  ?get_equilibrationTime@c_GradientPumpType@AdvionLCObjects@@QEBAAEBNXZ
    1147 0x130300  ?get_error@c_peakList@AdvionObjects@@QEBAAEBV?$basic_string@_WU?$char_traits@_W@std@@V?$allocator@_W@2@@std@@XZ
    1148 0x105720  ?get_estimateWidth@c_GlobalPeakDetection@AdvionObjects@@QEBAAEB_NXZ
    1149 0x105760  ?get_excludeNoise@c_GlobalPeakDetection@AdvionObjects@@QEBAAEB_NXZ
    1150 0x1408b0  ?get_extractionElectrode@c_CmsTuneParametersType@AdvionObjects@@QEBAAEBNXZ
    1151 0x1057a0  ?get_filter@c_AnalyteSettings@AdvionObjects@@QEAAAEAVc_Filter@2@_K@Z
    1152 0x1057f0  ?get_filter@c_AnalyteSettings@AdvionObjects@@QEBAAEBVc_Filter@2@_K@Z
    1153  0x50db0  ?get_filterTimeConstant@c_AdvionUVMethodType@AdvionLCObjects@@QEBAAEBNXZ
    1154  0x50df0  ?get_firmwareVersion@c_uvDetectorDeviceInfo@AdvionLCObjects@@QEBAAEBV?$basic_string@_WU?$char_traits@_W@std@@V?$allocator@_W@2@@std@@XZ
    1155 0x105840  ?get_fitType@c_AnalyteSettings@AdvionObjects@@QEBAAEBV?$basic_string@_WU?$char_traits@_W@std@@V?$allocator@_W@2@@std@@XZ
    1156  0x50e30  ?get_flowRateMlPerMin@c_GradientMethod@AdvionLCObjects@@QEBAAEBNXZ
    1157  0x50e70  ?get_flowRateMlPerMin@c_GradientPumpType@AdvionLCObjects@@QEBAAEBNXZ
    1158  0x50eb0  ?get_flushVolume@c_AvantSamplerInjection@AdvionLCObjects@@QEBAAEBHXZ
    1159  0x691e0  ?get_gasTemperature@c_EsiSource@AdvionObjects@@QEBAAEBNXZ
    1160  0x50ef0  ?get_gradient@c_GradientPumpType@AdvionLCObjects@@QEAAAEAVc_GradientMethod@2@_K@Z
    1161  0x50f30  ?get_gradient@c_GradientPumpType@AdvionLCObjects@@QEBAAEBVc_GradientMethod@2@_K@Z
    1162 0x105880  ?get_gradient@c_PeakTrigger@AdvionObjects@@QEBAAEBNXZ
    1163  0x50f70  ?get_hasUVLamp@c_uvDetectorDeviceInfo@AdvionLCObjects@@QEBAAEB_NXZ
    1164  0x50fb0  ?get_hasVisibleLamp@c_uvDetectorDeviceInfo@AdvionLCObjects@@QEBAAEB_NXZ
    1165 0x1058c0  ?get_height@c_IntegrationPoint@AdvionObjects@@QEBAAEBV?$basic_string@_WU?$char_traits@_W@std@@V?$allocator@_W@2@@std@@XZ
    1166 0x130340  ?get_heightAboveBaseline@c_Peak@AdvionObjects@@QEBAAEBNXZ
    1167 0x1408f0  ?get_hexapoleBias@c_CmsTuneParametersType@AdvionObjects@@QEBAAEBNXZ
    1168 0x140930  ?get_hexapoleRF@c_CmsTuneParametersType@AdvionObjects@@QEBAAEBNXZ
    1169 0x140970  ?get_hexapoleRFDynamic@c_CmsTuneParametersType@AdvionObjects@@QEBAAEBNXZ
    1170 0x105900  ?get_id@c_Analyte@AdvionObjects@@QEBAAEBV?$basic_string@_WU?$char_traits@_W@std@@V?$allocator@_W@2@@std@@XZ
    1171 0x105940  ?get_id@c_AnalyteSettings@AdvionObjects@@QEBAAEBV?$basic_string@_WU?$char_traits@_W@std@@V?$allocator@_W@2@@std@@XZ
    1172 0x105980  ?get_id@c_CalibrationStandard@AdvionObjects@@QEBAAEBV?$basic_string@_WU?$char_traits@_W@std@@V?$allocator@_W@2@@std@@XZ
    1173 0x1059c0  ?get_id@c_QuantScanMode@AdvionObjects@@QEBAAEBV?$basic_string@_WU?$char_traits@_W@std@@V?$allocator@_W@2@@std@@XZ
    1174 0x105a00  ?get_index@c_ScalarChannelChromGraphInfo@AdvionObjects@@QEBAAEBIXZ
    1175  0x50ff0  ?get_initialValvePosition@c_DiverterValveMethod@AdvionLCObjects@@QEBAAEBV?$basic_string@_WU?$char_traits@_W@std@@V?$allocator@_W@2@@std@@XZ
    1176  0x51030  ?get_injection@c_AvantSamplerMethodType@AdvionLCObjects@@QEAAAEAVc_AvantSamplerInjection@2@XZ
    1177  0x51070  ?get_injection@c_AvantSamplerMethodType@AdvionLCObjects@@QEBAAEBVc_AvantSamplerInjection@2@XZ
    1178  0x510b0  ?get_injectionMode@c_AvantSamplerInjection@AdvionLCObjects@@QEBAAEBV?$basic_string@_WU?$char_traits@_W@std@@V?$allocator@_W@2@@std@@XZ
    1179  0x510f0  ?get_injectionVolume@c_AvantSamplerInjection@AdvionLCObjects@@QEBAAEBHXZ
    1180 0x105a40  ?get_input@c_AnalogInputs@AdvionObjects@@QEAAAEAVc_AnalogInput@2@_K@Z
    1181 0x105ab0  ?get_input@c_AnalogInputs@AdvionObjects@@QEBAAEBVc_AnalogInput@2@_K@Z
    1182 0x105af0  ?get_instrumentType@c_QuantitationType@AdvionObjects@@QEBAAEBV?$basic_string@_WU?$char_traits@_W@std@@V?$allocator@_W@2@@std@@XZ
    1183 0x105b30  ?get_integrationPoint@c_GlobalPeakDetection@AdvionObjects@@QEAAAEAVc_IntegrationPoint@2@_K@Z
    1184 0x105b70  ?get_integrationPoint@c_GlobalPeakDetection@AdvionObjects@@QEBAAEBVc_IntegrationPoint@2@_K@Z
    1185 0x105bb0  ?get_intensity@c_SemiQuantStandard@AdvionObjects@@QEBAAEBN_K@Z
    1186 0x105bf0  ?get_intensityMetric@c_Analyte@AdvionObjects@@QEBAAEBV?$basic_string@_WU?$char_traits@_W@std@@V?$allocator@_W@2@@std@@XZ
    1187 0x1409b0  ?get_intercept@c_calibrationSegment@AdvionObjects@@QEBAAEBNXZ
    1188 0x105c30  ?get_internalStandard@c_QuantitationType@AdvionObjects@@QEAAAEAVc_Analyte@2@_K@Z
    1189 0x105c70  ?get_internalStandard@c_QuantitationType@AdvionObjects@@QEBAAEBVc_Analyte@2@_K@Z
    1190 0x105cb0  ?get_internalStandardId@c_AnalyteSettings@AdvionObjects@@QEBAAEBV?$basic_string@_WU?$char_traits@_W@std@@V?$allocator@_W@2@@std@@XZ
    1191 0x1409f0  ?get_ionEnergy@c_CmsTuneParametersType@AdvionObjects@@QEBAAEBNXZ
    1192 0x140a30  ?get_ionEnergyDynamic@c_CmsTuneParametersType@AdvionObjects@@QEBAAEBNXZ
    1193  0x69220  ?get_ionSource@c_ionSourceOptimization@AdvionObjects@@QEAAAEAVc_IonSource@2@XZ
    1194  0x69260  ?get_ionSource@c_ionSourceOptimization@AdvionObjects@@QEBAAEBVc_IonSource@2@XZ
    1195 0x105cf0  ?get_isFullRetentionTime@c_ParentChromGraphInfo@AdvionObjects@@QEBAAEB_NXZ
    1196 0x105d30  ?get_isFullRetentionTime@c_SpectrumGraphInfo@AdvionObjects@@QEBAAEB_NXZ
    1197 0x105d70  ?get_isStacked@c_GraphInfo@AdvionObjects@@QEBAAEB_NXZ
    1198 0x105db0  ?get_isStick@c_SpectrumGraphInfo@AdvionObjects@@QEBAAEB_NXZ
    1199 0x105df0  ?get_isotope@c_SemiQuantStandard@AdvionObjects@@QEAAAEAVc_SemiQuantIsotope@2@XZ
    1200 0x105e30  ?get_isotope@c_SemiQuantStandard@AdvionObjects@@QEBAAEBVc_SemiQuantIsotope@2@XZ
    1201 0x105e70  ?get_isotopeDilution@c_QuantitationType@AdvionObjects@@QEBAAEB_NXZ
    1202 0x105eb0  ?get_isotopeRatio@c_QuantitationType@AdvionObjects@@QEBAAEB_NXZ
    1203 0x105ef0  ?get_iterations@c_Smoothing@AdvionObjects@@QEBAAEBEXZ
    1204  0x51130  ?get_line@c_ClosureTriggerIn@AdvionLCObjects@@QEBAAEBEXZ
    1205 0x105f30  ?get_line@c_ClosureTriggerIn@AdvionObjects@@QEBAAEBEXZ
    1206 0x105f70  ?get_line@c_ContactClosureOut@AdvionObjects@@QEBAAEBEXZ
    1207 0x105fb0  ?get_manualHeight@c_IntegrationPoint@AdvionObjects@@QEBAAEBNXZ
    1208 0x105ff0  ?get_mass@c_Analyte@AdvionObjects@@QEBAAEBNXZ
    1209 0x106030  ?get_mass@c_MassOfInterest@AdvionObjects@@QEBAAEBNXZ
    1210 0x106070  ?get_mass@c_additionalMasses@c_Analyte@AdvionObjects@@QEBAAEBN_K@Z
    1211 0x1254a0  ?get_massCalibration@c_CmsTuneParametersType@AdvionObjects@@QEAAAEAVc_massCalibration@2@XZ
    1212 0x1254e0  ?get_massCalibration@c_CmsTuneParametersType@AdvionObjects@@QEBAAEBVc_massCalibration@2@XZ
    1213 0x1060b0  ?get_massNumber@c_SemiQuantIsotope@AdvionObjects@@QEBAAEBIXZ
    1214 0x1060f0  ?get_massOfInterest@c_SIMScanMode@AdvionObjects@@QEAAAEAVc_MassOfInterest@2@_K@Z
    1215 0x106130  ?get_massOfInterest@c_SIMScanMode@AdvionObjects@@QEBAAEBVc_MassOfInterest@2@_K@Z
    1216 0x106170  ?get_massSpan@c_Analyte@AdvionObjects@@QEBAAEBNXZ
    1217  0x51170  ?get_maxBandwidth@c_uvDetectorDeviceInfo@AdvionLCObjects@@QEBAAEBNXZ
    1218 0x1061b0  ?get_maxIntensity@c_AnalogInput@AdvionObjects@@QEBAAEBNXZ
    1219 0x1061f0  ?get_maxIntensity@c_AnalogOutput@AdvionObjects@@QEBAAEBNXZ
    1220 0x140a70  ?get_maxMass@c_calibrationSegment@AdvionObjects@@QEBAAEBNXZ
    1221  0x511b0  ?get_maxNumChannels@c_uvDetectorDeviceInfo@AdvionLCObjects@@QEBAAEBHXZ
    1222  0x511f0  ?get_maxPressurePsi@c_GradientPumpType@AdvionLCObjects@@QEBAAEBNXZ
    1223  0x51230  ?get_maxRefBandwidth@c_uvDetectorDeviceInfo@AdvionLCObjects@@QEBAAEBNXZ
    1224 0x106230  ?get_maxVoltage@c_AnalogInput@AdvionObjects@@QEBAAEBV?$basic_string@_WU?$char_traits@_W@std@@V?$allocator@_W@2@@std@@XZ
    1225 0x106270  ?get_maxVoltage@c_AnalogOutput@AdvionObjects@@QEBAAEBEXZ
    1226  0x51270  ?get_maxWavelength@c_uvDetectorDeviceInfo@AdvionLCObjects@@QEBAAEBNXZ
    1227 0x1062b0  ?get_maxWidth@c_GlobalPeakDetection@AdvionObjects@@QEBAAEBNXZ
    1228 0x130380  ?get_maximumIndex@c_Peak@AdvionObjects@@QEBAAEBHXZ
    1229 0x1303c0  ?get_maximumX@c_Peak@AdvionObjects@@QEBAAEBNXZ
    1230 0x130400  ?get_maximumY@c_Peak@AdvionObjects@@QEBAAEBNXZ
    1231  0x512b0  ?get_minBandwidth@c_uvDetectorDeviceInfo@AdvionLCObjects@@QEBAAEBNXZ
    1232 0x140ab0  ?get_minMass@c_calibrationSegment@AdvionObjects@@QEBAAEBNXZ
    1233  0x512f0  ?get_minPressurePsi@c_GradientPumpType@AdvionLCObjects@@QEBAAEBNXZ
    1234  0x51330  ?get_minWavelength@c_uvDetectorDeviceInfo@AdvionLCObjects@@QEBAAEBNXZ
    1235 0x1062f0  ?get_minWidth@c_DeltaBackgroundParameters@AdvionObjects@@QEBAAEBNXZ
    1236  0x51370  ?get_modelNumber@c_uvDetectorDeviceInfo@AdvionLCObjects@@QEBAAEBV?$basic_string@_WU?$char_traits@_W@std@@V?$allocator@_W@2@@std@@XZ
    1237 0x106330  ?get_name@c_AdditionalInfo@AdvionObjects@@QEBAAEBV?$basic_string@_WU?$char_traits@_W@std@@V?$allocator@_W@2@@std@@XZ
    1238 0x106370  ?get_name@c_AnalogInput@AdvionObjects@@QEBAAEBV?$basic_string@_WU?$char_traits@_W@std@@V?$allocator@_W@2@@std@@XZ
    1239 0x1063b0  ?get_name@c_Analyte@AdvionObjects@@QEBAAEBV?$basic_string@_WU?$char_traits@_W@std@@V?$allocator@_W@2@@std@@XZ
    1240  0x513d0  ?get_needleHeight@c_AvantSamplerInjection@AdvionLCObjects@@QEBAAEBNXZ
    1241  0x692a0  ?get_negative@c_ionSourceOptimization@AdvionObjects@@QEBAAEB_NXZ
    1242 0x106470  ?get_noiseOffset@c_DeltaBackgroundParameters@AdvionObjects@@QEBAAEBIXZ
    1243 0x1064b0  ?get_numPeakLabels@c_GlobalPeakDetection@AdvionObjects@@QEBAAEBHXZ
    1244  0x51d90  ?get_offset@c_UVChannelAnalogOutput@AdvionLCObjects@@QEBAAEBNXZ
    1245  0x51dd0  ?get_onLowToHigh@c_ClosureTriggerIn@AdvionLCObjects@@QEBAAEB_NXZ
    1246 0x1064f0  ?get_onLowToHigh@c_ClosureTriggerIn@AdvionObjects@@QEBAAEB_NXZ
    1247 0x106530  ?get_openTimeSeconds@c_RepeatTimeTrigger@AdvionObjects@@QEBAAEBHXZ
    1248 0x106570  ?get_openTrigger@c_ContactClosureOut@AdvionObjects@@QEAAAEAVc_ClosureOutTrigger@2@XZ
    1249 0x1065b0  ?get_openTrigger@c_ContactClosureOut@AdvionObjects@@QEBAAEBVc_ClosureOutTrigger@2@XZ
    1250 0x1065f0  ?get_output@c_AnalogOutputs@AdvionObjects@@QEAAAEAVc_AnalogOutput@2@_K@Z
    1251 0x106660  ?get_output@c_AnalogOutputs@AdvionObjects@@QEBAAEBVc_AnalogOutput@2@_K@Z
    1252 0x1066a0  ?get_parentChromInfo@c_processMethod@AdvionObjects@@QEAAAEAVc_ParentChromGraphInfo@2@XZ
    1253 0x1066e0  ?get_parentChromInfo@c_processMethod@AdvionObjects@@QEBAAEBVc_ParentChromGraphInfo@2@XZ
    1254 0x106720  ?get_parentSpectrumInfo@c_processMethod@AdvionObjects@@QEAAAEAVc_SpectrumGraphInfo@2@XZ
    1255 0x106760  ?get_parentSpectrumInfo@c_processMethod@AdvionObjects@@QEBAAEBVc_SpectrumGraphInfo@2@XZ
    1256 0x130440  ?get_peak@c_peakList@AdvionObjects@@QEAAAEAVc_Peak@2@_K@Z
    1257 0x130480  ?get_peak@c_peakList@AdvionObjects@@QEBAAEBVc_Peak@2@_K@Z
    1258 0x1067a0  ?get_peakDetection@c_AnalyteSettings@AdvionObjects@@QEAAAEAVc_PeakDetectionType@2@XZ
    1259 0x1067e0  ?get_peakDetection@c_AnalyteSettings@AdvionObjects@@QEBAAEBVc_PeakDetectionType@2@XZ
    1260 0x106820  ?get_peakDetections@c_GraphInfo@AdvionObjects@@QEAAAEAVc_PeakDetectionType@2@_K@Z
    1261 0x106870  ?get_peakDetections@c_GraphInfo@AdvionObjects@@QEBAAEBVc_PeakDetectionType@2@_K@Z
    1262  0x51e10  ?get_pump@c_AdvionLCMethodType@AdvionLCObjects@@QEAAAEAVc_PumpMethod@2@XZ
    1263  0x51e50  ?get_pump@c_AdvionLCMethodType@AdvionLCObjects@@QEBAAEBVc_PumpMethod@2@XZ
    1264  0x51e90  ?get_pumpASolvent@c_GradientPumpType@AdvionLCObjects@@QEBAAEBV?$basic_string@_WU?$char_traits@_W@std@@V?$allocator@_W@2@@std@@XZ
    1265  0x51ed0  ?get_pumpBSolvent@c_GradientPumpType@AdvionLCObjects@@QEBAAEBV?$basic_string@_WU?$char_traits@_W@std@@V?$allocator@_W@2@@std@@XZ
    1266  0x51f10  ?get_pumpFractionB@c_AvantSamplerValveWash@AdvionLCObjects@@QEBAAEBHXZ
    1267 0x1068c0  ?get_qcOnly@c_QuantitationType@AdvionObjects@@QEBAAEB_NXZ
    1268 0x106900  ?get_quantitation@c_MethodType@AdvionObjects@@QEAAAEAVc_QuantitationType@2@XZ
    1269 0x106940  ?get_quantitation@c_MethodType@AdvionObjects@@QEBAAEBVc_QuantitationType@2@XZ
    1270 0x106980  ?get_quantitation@c_QuantitationType@AdvionObjects@@QEBAAEB_NXZ
    1271 0x1069c0  ?get_radius@c_Smoothing@AdvionObjects@@QEBAAEBEXZ
    1272  0x51f50  ?get_rangeScanMode@c_AdvionUVMethodType@AdvionLCObjects@@QEAAAEAVc_UVRangeScanMode@2@XZ
    1273  0x51f90  ?get_rangeScanMode@c_AdvionUVMethodType@AdvionLCObjects@@QEBAAEBVc_UVRangeScanMode@2@XZ
    1274  0x51fd0  ?get_ratio@c_UVChannelAnalogOutput@AdvionLCObjects@@QEBAAEBNXZ
    1275  0x52010  ?get_refBandwidth@c_UVChannel@AdvionLCObjects@@QEBAAEBNXZ
    1276  0x52050  ?get_refBandwidth@c_UVRangeScanMode@AdvionLCObjects@@QEBAAEBNXZ
    1277  0x52090  ?get_refEnabled@c_UVChannel@AdvionLCObjects@@QEBAAEB_NXZ
    1278  0x520d0  ?get_refEnabled@c_UVRangeScanMode@AdvionLCObjects@@QEBAAEB_NXZ
    1279  0x52110  ?get_refWavelength@c_UVChannel@AdvionLCObjects@@QEBAAEBNXZ
    1280  0x52150  ?get_refWavelength@c_UVRangeScanMode@AdvionLCObjects@@QEBAAEBNXZ
    1281 0x106a00  ?get_referenceAnalyteId@c_AnalyteSettings@AdvionObjects@@QEBAAEBV?$basic_string@_WU?$char_traits@_W@std@@V?$allocator@_W@2@@std@@XZ
    1282 0x106a40  ?get_relativeAtomicMass@c_SemiQuantIsotope@AdvionObjects@@QEBAAEBNXZ
    1283 0x106a80  ?get_removeFromChromatograms@c_BackgroundOptions@AdvionObjects@@QEBAAEB_NXZ
    1284 0x106ac0  ?get_removeFromSpectra@c_BackgroundOptions@AdvionObjects@@QEBAAEB_NXZ
    1285 0x106b00  ?get_removeNoise@c_MethodType@AdvionObjects@@QEBAAEB_NXZ
    1286 0x140af0  ?get_resolutionGain@c_CmsTuneParametersType@AdvionObjects@@QEBAAEBNXZ
    1287 0x140b30  ?get_resolutionOffset@c_CmsTuneParametersType@AdvionObjects@@QEBAAEBNXZ
    1288 0x106b40  ?get_retentionTime@c_Analyte@AdvionObjects@@QEBAAEBNXZ
    1289 0x106b80  ?get_retentionTime@c_IntegrationPoint@AdvionObjects@@QEBAAEBV?$basic_string@_WU?$char_traits@_W@std@@V?$allocator@_W@2@@std@@XZ
    1290 0x106bc0  ?get_retentionTimeSpan@c_Analyte@AdvionObjects@@QEBAAEBNXZ
    1291 0x106c00  ?get_runTime@c_MethodType@AdvionObjects@@QEBAAEBIXZ
    1292 0x106c40  ?get_sampleListFileIndex@c_AnalyteSettings@AdvionObjects@@QEBAAEBHXZ
    1293 0x106c80  ?get_sampleListFileIndex@c_QuantScanMode@AdvionObjects@@QEBAAEBHXZ
    1294  0x52190  ?get_sampleSpeed@c_AvantSamplerInjection@AdvionLCObjects@@QEBAAEBV?$basic_string@_WU?$char_traits@_W@std@@V?$allocator@_W@2@@std@@XZ
    1295  0x521d0  ?get_sampler@c_AdvionLCMethodType@AdvionLCObjects@@QEAAAEAVc_SamplerMethod@2@XZ
    1296  0x52210  ?get_sampler@c_AdvionLCMethodType@AdvionLCObjects@@QEBAAEBVc_SamplerMethod@2@XZ
    1297 0x106cc0  ?get_scanDelay@c_MassOfInterest@AdvionObjects@@QEBAAEBNXZ
    1298 0x106d00  ?get_scanDelay@c_RangeScanMode@AdvionObjects@@QEBAAEBNXZ
    1299 0x106d40  ?get_scanMode@c_MethodType@AdvionObjects@@QEAAAEAVc_ScanMode@2@_K@Z
    1300 0x106db0  ?get_scanMode@c_MethodType@AdvionObjects@@QEBAAEBVc_ScanMode@2@_K@Z
    1301 0x106df0  ?get_scanMode@c_QuantitationType@AdvionObjects@@QEAAAEAVc_QuantScanMode@2@_K@Z
    1302 0x106e60  ?get_scanMode@c_QuantitationType@AdvionObjects@@QEBAAEBVc_QuantScanMode@2@_K@Z
    1303 0x106eb0  ?get_scanModeId@c_AnalyteSettings@AdvionObjects@@QEBAAEBV?$basic_string@_WU?$char_traits@_W@std@@V?$allocator@_W@2@@std@@XZ
    1304 0x106ef0  ?get_scanModeIndex@c_AnalogOutput@AdvionObjects@@QEBAAEBIXZ
    1305 0x106f30  ?get_scanModeIndex@c_PeakTrigger@AdvionObjects@@QEBAAEBIXZ
    1306 0x106f70  ?get_scanModeType@c_QuantScanMode@AdvionObjects@@QEBAAEBV?$basic_string@_WU?$char_traits@_W@std@@V?$allocator@_W@2@@std@@XZ
    1307  0x52250  ?get_scanRate@c_UVScanMode@AdvionLCObjects@@QEBAAEBNXZ
    1308 0x140b70  ?get_scanSpeed@c_speedCalibration@AdvionObjects@@QEBAAEBNXZ
    1309 0x106fb0  ?get_scanTime@c_RangeScanMode@AdvionObjects@@QEBAAEBNXZ
    1310 0x106ff0  ?get_seconds@c_TimeTrigger@AdvionObjects@@QEBAAEBHXZ
    1311 0x125520  ?get_segment@c_calibration@AdvionObjects@@QEAAAEAVc_calibrationSegment@2@_K@Z
    1312 0x140bb0  ?get_segment@c_calibration@AdvionObjects@@QEBAAEBVc_calibrationSegment@2@_K@Z
    1313 0x140bf0  ?get_segment@c_speedCalibration@AdvionObjects@@QEAAAEAVc_calibrationSegment@2@_K@Z
    1314 0x125560  ?get_segment@c_speedCalibration@AdvionObjects@@QEBAAEBVc_calibrationSegment@2@_K@Z
    1315 0x107030  ?get_semiQuantSettings@c_QuantitationType@AdvionObjects@@QEAAAEAVc_SemiQuantSettings@2@XZ
    1316 0x107070  ?get_semiQuantSettings@c_QuantitationType@AdvionObjects@@QEBAAEBVc_SemiQuantSettings@2@XZ
    1317  0x52290  ?get_serialNumber@c_uvDetectorDeviceInfo@AdvionLCObjects@@QEBAAEBV?$basic_string@_WU?$char_traits@_W@std@@V?$allocator@_W@2@@std@@XZ
    1318  0x522d0  ?get_setpoint@c_AvantSamplerCooling@AdvionLCObjects@@QEBAAEBEXZ
    1319 0x1070b0  ?get_settings@c_Analyte@AdvionObjects@@QEAAAEAVc_AnalyteSettings@2@_K@Z
    1320 0x107100  ?get_settings@c_Analyte@AdvionObjects@@QEBAAEBVc_AnalyteSettings@2@_K@Z
    1321 0x107150  ?get_setup@c_peakDetection@AdvionObjects@@QEAAAEAVc_PeakDetectionType@2@XZ
    1322 0x107190  ?get_setup@c_peakDetection@AdvionObjects@@QEBAAEBVc_PeakDetectionType@2@XZ
    1323 0x1071d0  ?get_sigma@c_GlobalPeakDetection@AdvionObjects@@QEBAAEBNXZ
    1324 0x107210  ?get_simIndex@c_SIMAnalogOutput@AdvionObjects@@QEBAAEBIXZ
    1325 0x107250  ?get_simIndex@c_SIMPeakTrigger@AdvionObjects@@QEBAAEBIXZ
    1326 0x140c30  ?get_slope@c_calibrationSegment@AdvionObjects@@QEBAAEBNXZ
    1327 0x107290  ?get_smoothing@c_AnalogOutput@AdvionObjects@@QEAAAEAVc_AnalogOutputSmoothing@2@XZ
    1328 0x1072d0  ?get_smoothing@c_AnalogOutput@AdvionObjects@@QEBAAEBVc_AnalogOutputSmoothing@2@XZ
    1329 0x107310  ?get_smoothing@c_MethodType@AdvionObjects@@QEAAAEAVc_Smoothing@2@XZ
    1330 0x107350  ?get_smoothing@c_MethodType@AdvionObjects@@QEBAAEBVc_Smoothing@2@XZ
    1331  0x52310  ?get_solventADescription@c_GradientPumpType@AdvionLCObjects@@QEBAAEBV?$basic_string@_WU?$char_traits@_W@std@@V?$allocator@_W@2@@std@@XZ
    1332  0x52350  ?get_solventB@c_GradientMethod@AdvionLCObjects@@QEBAAEBNXZ
    1333  0x52390  ?get_solventB@c_GradientPumpType@AdvionLCObjects@@QEBAAEBNXZ
    1334  0x523d0  ?get_solventBDescription@c_GradientPumpType@AdvionLCObjects@@QEBAAEBV?$basic_string@_WU?$char_traits@_W@std@@V?$allocator@_W@2@@std@@XZ
    1335 0x107390  ?get_source@c_AnalogOutput@AdvionObjects@@QEBAAEBV?$basic_string@_WU?$char_traits@_W@std@@V?$allocator@_W@2@@std@@XZ
    1336 0x1073d0  ?get_source@c_PeakTrigger@AdvionObjects@@QEBAAEBV?$basic_string@_WU?$char_traits@_W@std@@V?$allocator@_W@2@@std@@XZ
    1337  0x692e0  ?get_sourceVoltage@c_ionSourceOptimization@AdvionObjects@@QEBAAEBNXZ
    1338  0x69320  ?get_sourceVoltageDynamic@c_ionSourceOptimization@AdvionObjects@@QEBAAEBNXZ
    1339 0x107410  ?get_sourceVoltageOffset@c_MassOfInterest@AdvionObjects@@QEBAAEBNXZ
    1340 0x107450  ?get_span@c_MassOfInterest@AdvionObjects@@QEBAAEBNXZ
    1341 0x107490  ?get_span@c_TimeBaselineRemoval@AdvionObjects@@QEBAAEBNXZ
    1342 0x1074d0  ?get_spectrumInfos@c_processMethod@AdvionObjects@@QEAAAEAVc_SpectrumGraphInfo@2@_K@Z
    1343 0x107510  ?get_spectrumInfos@c_processMethod@AdvionObjects@@QEBAAEBVc_SpectrumGraphInfo@2@_K@Z
    1344 0x107550  ?get_standardAddition@c_QuantitationType@AdvionObjects@@QEBAAEB_NXZ
    1345  0x52410  ?get_start@c_ContactClosureIn@AdvionLCObjects@@QEAAAEAVc_ClosureTriggerIn@2@XZ
    1346  0x52450  ?get_start@c_ContactClosureIn@AdvionLCObjects@@QEBAAEBVc_ClosureTriggerIn@2@XZ
    1347 0x107590  ?get_start@c_ContactClosureIn@AdvionObjects@@QEAAAEAVc_ClosureTriggerIn@2@XZ
    1348 0x1075d0  ?get_start@c_ContactClosureIn@AdvionObjects@@QEBAAEBVc_ClosureTriggerIn@2@XZ
    1349 0x107610  ?get_start@c_RangeScanMode@AdvionObjects@@QEBAAEBNXZ
    1350 0x1304c0  ?get_startIndex@c_IntegrationBaseline@AdvionObjects@@QEBAAEBHXZ
    1351 0x107650  ?get_startMass@c_BasePeakChromGraphInfo@AdvionObjects@@QEBAAEBNXZ
    1352 0x107690  ?get_startMass@c_ExtractedAnalogOutput@AdvionObjects@@QEBAAEBNXZ
    1353 0x1076d0  ?get_startMass@c_ExtractedPeakTrigger@AdvionObjects@@QEBAAEBNXZ
    1354 0x107710  ?get_startMass@c_XICChromGraphInfo@AdvionObjects@@QEBAAEBNXZ
    1355 0x107750  ?get_startRetentionTime@c_IntegrationPoint@AdvionObjects@@QEBAAEBNXZ
    1356 0x107790  ?get_startRetentionTime@c_SpectrumGraphInfo@AdvionObjects@@QEBAAEBNXZ
    1357 0x1077d0  ?get_startTime@c_BackgroundSpectrum@AdvionObjects@@QEBAAEBNXZ
    1358 0x107810  ?get_startTime@c_DeltaBackgroundParameters@AdvionObjects@@QEBAAEBNXZ
    1359 0x107850  ?get_startTime@c_MassOfInterest@AdvionObjects@@QEBAAEBIXZ
    1360  0x52490  ?get_startWavelength@c_UVRangeScanMode@AdvionLCObjects@@QEBAAEBNXZ
    1361 0x107890  ?get_startX@c_GraphInfo@AdvionObjects@@QEBAAEBNXZ
    1362 0x130500  ?get_startX@c_IntegrationBaseline@AdvionObjects@@QEBAAEBNXZ
    1363 0x130540  ?get_startY@c_IntegrationBaseline@AdvionObjects@@QEBAAEBNXZ
    1364  0x524d0  ?get_stop@c_ContactClosureIn@AdvionLCObjects@@QEAAAEAVc_ClosureTriggerIn@2@XZ
    1365  0x52510  ?get_stop@c_ContactClosureIn@AdvionLCObjects@@QEBAAEBVc_ClosureTriggerIn@2@XZ
    1366 0x1078d0  ?get_stop@c_ContactClosureIn@AdvionObjects@@QEAAAEAVc_ClosureTriggerIn@2@XZ
    1367 0x107910  ?get_stop@c_ContactClosureIn@AdvionObjects@@QEBAAEBVc_ClosureTriggerIn@2@XZ
    1368  0x52550  ?get_stopPumpAtEnd@c_GradientPumpType@AdvionLCObjects@@QEBAAEB_NXZ
    1369 0x107950  ?get_stopTime@c_MassOfInterest@AdvionObjects@@QEBAAEBIXZ
    1370  0x52590  ?get_supportsMultipleBandwidths@c_uvDetectorDeviceInfo@AdvionLCObjects@@QEBAAEB_NXZ
    1371  0x525d0  ?get_supportsMultipleScanRates@c_uvDetectorDeviceInfo@AdvionLCObjects@@QEBAAEB_NXZ
    1372  0x52610  ?get_supportsReferenceWavelength@c_uvDetectorDeviceInfo@AdvionLCObjects@@QEBAAEB_NXZ
    1373 0x107990  ?get_targetRetentionTime@c_GlobalPeakDetection@AdvionObjects@@QEBAAEBNXZ
    1374  0x69360  ?get_temperature@c_ApciSource@AdvionObjects@@QEBAAEBNXZ
    1375  0x52650  ?get_temperatureControlled@c_AdvionColumnOvenMethodType@AdvionLCObjects@@QEBAAEB_NXZ
    1376  0x52690  ?get_temperatureSetpoint@c_AdvionColumnOvenMethodType@AdvionLCObjects@@QEBAAEBNXZ
    1377  0x526d0  ?get_temperatureTolerance@c_AdvionColumnOvenMethodType@AdvionLCObjects@@QEBAAEBNXZ
    1378 0x1079d0  ?get_threshold@c_DeltaBackgroundParameters@AdvionObjects@@QEBAAEBNXZ
    1379 0x107a10  ?get_threshold@c_GlobalPeakDetection@AdvionObjects@@QEBAAEBNXZ
    1380 0x107a50  ?get_threshold@c_PeakTrigger@AdvionObjects@@QEBAAEBNXZ
    1381 0x107a90  ?get_time@c_TimeBaselineRemoval@AdvionObjects@@QEBAAEBNXZ
    1382 0x107ad0  ?get_time@c_TriangleAnalogOutputSmoothing@AdvionObjects@@QEBAAEBNXZ
    1383  0x52710  ?get_timeEntry@c_DiverterValveMethod@AdvionLCObjects@@QEBAAEBN_K@Z
    1384  0x52750  ?get_timeMin@c_GradientMethod@AdvionLCObjects@@QEBAAEBNXZ
    1385 0x107b10  ?get_timePastThreshold@c_PeakTrigger@AdvionObjects@@QEBAAEBIXZ
    1386  0x693a0  ?get_transferLineTemperature@c_ApciSource@AdvionObjects@@QEBAAEBNXZ
    1387  0x52790  ?get_trayType@c_AvantSamplerInjection@AdvionLCObjects@@QEBAAEBV?$basic_string@_WU?$char_traits@_W@std@@V?$allocator@_W@2@@std@@XZ
    1388 0x107b50  ?get_type@c_CalibrationStandard@AdvionObjects@@QEBAAEBV?$basic_string@_WU?$char_traits@_W@std@@V?$allocator@_W@2@@std@@XZ
    1389  0x527d0  ?get_useAirSegment@c_AvantSamplerInjection@AdvionLCObjects@@QEBAAEB_NXZ
    1390 0x107b90  ?get_useDefaultStandards@c_SemiQuantSettings@AdvionObjects@@QEBAAEB_NXZ
    1391 0x107bd0  ?get_useGradient@c_PeakTrigger@AdvionObjects@@QEBAAEB_NXZ
    1392  0x52810  ?get_useHeadspace@c_AvantSamplerInjection@AdvionLCObjects@@QEBAAEB_NXZ
    1393 0x107c10  ?get_useTwoIonSourceOptimizations@c_RangeScanMode@AdvionObjects@@QEBAAEB_NXZ
    1394 0x107c50  ?get_userModified@c_GlobalPeakDetection@AdvionObjects@@QEBAAEB_NXZ
    1395  0x693e0  ?get_usingHelium@c_DartSource@AdvionObjects@@QEBAAEB_NXZ
    1396  0x52850  ?get_uvDetector@c_AdvionLCMethodType@AdvionLCObjects@@QEAAAEAVc_UVDetectorMethod@2@XZ
    1397  0x52890  ?get_uvDetector@c_AdvionLCMethodType@AdvionLCObjects@@QEBAAEBVc_UVDetectorMethod@2@XZ
    1398  0x528d0  ?get_uvMaxWavelength@c_uvDetectorDeviceInfo@AdvionLCObjects@@QEBAAEBNXZ
    1399 0x107c90  ?get_value@c_AdditionalInfo@AdvionObjects@@QEBAAEBV?$basic_string@_WU?$char_traits@_W@std@@V?$allocator@_W@2@@std@@XZ
    1400  0x52930  ?get_valveWash@c_AvantSamplerMethodType@AdvionLCObjects@@QEAAAEAVc_AvantSamplerValveWash@2@XZ
    1401  0x52970  ?get_valveWash@c_AvantSamplerMethodType@AdvionLCObjects@@QEBAAEBVc_AvantSamplerValveWash@2@XZ
    1402  0x529b0  ?get_version@c_AdvionLCMethod@AdvionLCObjects@@QEBAAEBV?$basic_string@_WU?$char_traits@_W@std@@V?$allocator@_W@2@@std@@XZ
    1403  0x69420  ?get_version@c_ionSourceOptimization@AdvionObjects@@QEBAAEBV?$basic_string@_WU?$char_traits@_W@std@@V?$allocator@_W@2@@std@@XZ
    1404 0x107cd0  ?get_version@c_method@AdvionObjects@@QEBAAEBV?$basic_string@_WU?$char_traits@_W@std@@V?$allocator@_W@2@@std@@XZ
    1405 0x107d10  ?get_version@c_peakDetection@AdvionObjects@@QEBAAEBV?$basic_string@_WU?$char_traits@_W@std@@V?$allocator@_W@2@@std@@XZ
    1406 0x1255a0  ?get_version@c_peakList@AdvionObjects@@QEBAAEBV?$basic_string@_WU?$char_traits@_W@std@@V?$allocator@_W@2@@std@@XZ
    1407 0x107d50  ?get_version@c_processMethod@AdvionObjects@@QEBAAEBV?$basic_string@_WU?$char_traits@_W@std@@V?$allocator@_W@2@@std@@XZ
    1408 0x1255e0  ?get_version@c_tuneParameters@AdvionObjects@@QEBAAEBV?$basic_string@_WU?$char_traits@_W@std@@V?$allocator@_W@2@@std@@XZ
    1409  0x529f0  ?get_version@c_uvDetectorDeviceInfo@AdvionLCObjects@@QEBAAEBV?$basic_string@_WU?$char_traits@_W@std@@V?$allocator@_W@2@@std@@XZ
    1410  0x52a30  ?get_visMinWavelength@c_uvDetectorDeviceInfo@AdvionLCObjects@@QEBAAEBNXZ
    1411  0x69460  ?get_voltage@c_EsiSource@AdvionObjects@@QEBAAEBNXZ
    1412  0x52a70  ?get_volume@c_AvantSamplerWashLine@AdvionLCObjects@@QEBAAEBHXZ
    1413  0x52ab0  ?get_waitForLampsReady@c_AdvionUVMethodType@AdvionLCObjects@@QEBAAEB_NXZ
    1414  0x52af0  ?get_waitForSetpoint@c_AvantSamplerCooling@AdvionLCObjects@@QEBAAEB_NXZ
    1415  0x52b30  ?get_wash@c_AvantSamplerMethodType@AdvionLCObjects@@QEAAAEAVc_AvantSamplerWashLine@2@_K@Z
    1416  0x52b70  ?get_wash@c_AvantSamplerMethodType@AdvionLCObjects@@QEBAAEBVc_AvantSamplerWashLine@2@_K@Z
    1417  0x52bb0  ?get_washSolvent@c_AvantSamplerWashLine@AdvionLCObjects@@QEBAAEBV?$basic_string@_WU?$char_traits@_W@std@@V?$allocator@_W@2@@std@@XZ
    1418  0x52bf0  ?get_washValve@c_AvantSamplerWashLine@AdvionLCObjects@@QEBAAEB_NXZ
    1419  0x52c30  ?get_wavelength@c_UVChannel@AdvionLCObjects@@QEBAAEBNXZ
    1420 0x107d90  ?get_weighting@c_AnalyteSettings@AdvionObjects@@QEBAAEBV?$basic_string@_WU?$char_traits@_W@std@@V?$allocator@_W@2@@std@@XZ
    1421 0x107dd0  ?get_width@c_BoxFilter@AdvionObjects@@QEBAAEBHXZ
    1422 0x130580  ?get_widthUsed@c_peakList@AdvionObjects@@QEBAAEBNXZ
    1423  0x19670  ?getenum_enableAnalysis@c_AdvionColumnOvenMethodType@AdvionLCObjects@@QEBA?AW4AdvionLCMethod_enum_enableAnalysis@12@XZ
    1424 0x1291a0  ?getenum_error@c_peakList@AdvionObjects@@QEBA?AW4PeakList_enum_error@12@XZ
    1425  0x8b4a0  ?getenum_fitType@c_AnalyteSettings@AdvionObjects@@QEBA?AW4Method_enum_fitType@12@XZ
    1426  0x7aae0  ?getenum_height@c_IntegrationPoint@AdvionObjects@@QEBA?AW4Method_enum_height@12@XZ
    1427   0xbda0  ?getenum_initialValvePosition@c_DiverterValveMethod@AdvionLCObjects@@QEBA?AW4AdvionLCMethod_enum_initialValvePosition@12@XZ
    1428   0xecf0  ?getenum_injectionMode@c_AvantSamplerInjection@AdvionLCObjects@@QEBA?AW4AdvionLCMethod_enum_injectionMode@12@XZ
    1429  0x9ec40  ?getenum_instrumentType@c_QuantitationType@AdvionObjects@@QEBA?AW4Method_enum_instrumentType@12@XZ
    1430  0x9ad90  ?getenum_intensityMetric@c_Analyte@AdvionObjects@@QEBA?AW4Method_enum_intensityMetric@12@XZ
    1431  0x6d9a0  ?getenum_maxVoltage@c_AnalogInput@AdvionObjects@@QEBA?AW4Method_enum_maxVoltage@12@XZ
    1432  0x1ecf0  ?getenum_pumpASolvent@c_GradientPumpType@AdvionLCObjects@@QEBA?AW4AdvionLCMethod_enum_pumpASolvent@12@XZ
    1433  0x1eec0  ?getenum_pumpBSolvent@c_GradientPumpType@AdvionLCObjects@@QEBA?AW4AdvionLCMethod_enum_pumpBSolvent@12@XZ
    1434  0x7a910  ?getenum_retentionTime@c_IntegrationPoint@AdvionObjects@@QEBA?AW4Method_enum_retentionTime@12@XZ
    1435   0xef20  ?getenum_sampleSpeed@c_AvantSamplerInjection@AdvionLCObjects@@QEBA?AW4AdvionLCMethod_enum_sampleSpeed@12@XZ
    1436  0x793a0  ?getenum_scanModeType@c_QuantScanMode@AdvionObjects@@QEBA?AW4Method_enum_scanModeType@12@XZ
    1437  0x81e50  ?getenum_source@c_AnalogOutput@AdvionObjects@@QEBA?AW4Method_enum_source@12@XZ
    1438  0x71400  ?getenum_source@c_PeakTrigger@AdvionObjects@@QEBA?AW4Method_enum_source@12@XZ
    1439   0xe860  ?getenum_trayType@c_AvantSamplerInjection@AdvionLCObjects@@QEBA?AW4AdvionLCMethod_enum_trayType@12@XZ
    1440  0x896a0  ?getenum_type@c_CalibrationStandard@AdvionObjects@@QEBA?AW4Method_enum_type@12@XZ
    1441  0x10430  ?getenum_washSolvent@c_AvantSamplerWashLine@AdvionLCObjects@@QEBA?AW4AdvionLCMethod_enum_washSolvent@12@XZ
    1442  0x8b730  ?getenum_weighting@c_AnalyteSettings@AdvionObjects@@QEBA?AW4Method_enum_weighting@12@XZ
    1443  0x52c70  ?getid@c_AdvionColumnOvenMethodType@AdvionLCObjects@@UEBAPEBDXZ
    1444  0x52c80  ?getid@c_AdvionUVMethodType@AdvionLCObjects@@UEBAPEBDXZ
    1445  0x52c90  ?getid@c_AliasMethodType@AdvionLCObjects@@UEBAPEBDXZ
    1446 0x107e10  ?getid@c_AnalogOutput@AdvionObjects@@UEBAPEBDXZ
    1447 0x107e20  ?getid@c_AnalogOutputSmoothing@AdvionObjects@@UEBAPEBDXZ
    1448  0x694a0  ?getid@c_ApciSource@AdvionObjects@@UEBAPEBDXZ
    1449  0x52ca0  ?getid@c_AvantSamplerMethodType@AdvionLCObjects@@UEBAPEBDXZ
    1450 0x107e30  ?getid@c_BackgroundSpectrumGraphInfo@AdvionObjects@@UEBAPEBDXZ
    1451 0x107e40  ?getid@c_BasePeakChromGraphInfo@AdvionObjects@@UEBAPEBDXZ
    1452 0x107e50  ?getid@c_BaselineRemoval@AdvionObjects@@UEBAPEBDXZ
    1453 0x107e60  ?getid@c_BoxFilter@AdvionObjects@@UEBAPEBDXZ
    1454 0x107e70  ?getid@c_ChromGraphInfo@AdvionObjects@@UEBAPEBDXZ
    1455 0x107e80  ?getid@c_ClosureOutTrigger@AdvionObjects@@UEBAPEBDXZ
    1456  0x52cb0  ?getid@c_ColumnOvenMethod@AdvionLCObjects@@UEBAPEBDXZ
    1457  0x694b0  ?getid@c_DartSource@AdvionObjects@@UEBAPEBDXZ
    1458 0x107e90  ?getid@c_DeltaICAnalogOutput@AdvionObjects@@UEBAPEBDXZ
    1459 0x107ea0  ?getid@c_DeltaICPeakTrigger@AdvionObjects@@UEBAPEBDXZ
    1460 0x107eb0  ?getid@c_DeltaXICAnalogOutput@AdvionObjects@@UEBAPEBDXZ
    1461 0x107ec0  ?getid@c_DeltaXICPeakTrigger@AdvionObjects@@UEBAPEBDXZ
    1462  0x694c0  ?getid@c_EsiSource@AdvionObjects@@UEBAPEBDXZ
    1463 0x107ed0  ?getid@c_ExtractedAnalogOutput@AdvionObjects@@UEBAPEBDXZ
    1464 0x107ee0  ?getid@c_ExtractedPeakTrigger@AdvionObjects@@UEBAPEBDXZ
    1465 0x107ef0  ?getid@c_Filter@AdvionObjects@@UEBAPEBDXZ
    1466 0x107f00  ?getid@c_GlobalPeakDetection@AdvionObjects@@UEBAPEBDXZ
    1467  0x52cc0  ?getid@c_GradientPumpType@AdvionLCObjects@@UEBAPEBDXZ
    1468 0x107f10  ?getid@c_GraphInfo@AdvionObjects@@UEBAPEBDXZ
    1469  0x694d0  ?getid@c_IonSource@AdvionObjects@@UEBAPEBDXZ
    1470 0x107f20  ?getid@c_ParentChromGraphInfo@AdvionObjects@@UEBAPEBDXZ
    1471 0x107f30  ?getid@c_PeakDetectionType@AdvionObjects@@UEBAPEBDXZ
    1472 0x107f40  ?getid@c_PeakTrigger@AdvionObjects@@UEBAPEBDXZ
    1473  0x52cd0  ?getid@c_PumpMethod@AdvionLCObjects@@UEBAPEBDXZ
    1474 0x107f50  ?getid@c_RangeScanMode@AdvionObjects@@UEBAPEBDXZ
    1475 0x107f60  ?getid@c_RepeatTimeTrigger@AdvionObjects@@UEBAPEBDXZ
    1476 0x107f70  ?getid@c_SIMAnalogOutput@AdvionObjects@@UEBAPEBDXZ
    1477 0x107f80  ?getid@c_SIMPeakTrigger@AdvionObjects@@UEBAPEBDXZ
    1478 0x107f90  ?getid@c_SIMScanMode@AdvionObjects@@UEBAPEBDXZ
    1479  0x52ce0  ?getid@c_SamplerMethod@AdvionLCObjects@@UEBAPEBDXZ
    1480 0x107fa0  ?getid@c_ScalarChannelChromGraphInfo@AdvionObjects@@UEBAPEBDXZ
    1481 0x107fb0  ?getid@c_ScanMode@AdvionObjects@@UEBAPEBDXZ
    1482 0x107fc0  ?getid@c_SpectrumGraphInfo@AdvionObjects@@UEBAPEBDXZ
    1483 0x107fd0  ?getid@c_TICAnalogOutput@AdvionObjects@@UEBAPEBDXZ
    1484 0x107fe0  ?getid@c_TICChromGraphInfo@AdvionObjects@@UEBAPEBDXZ
    1485 0x107ff0  ?getid@c_TICPeakTrigger@AdvionObjects@@UEBAPEBDXZ
    1486 0x108000  ?getid@c_TimeBaselineRemoval@AdvionObjects@@UEBAPEBDXZ
    1487 0x108010  ?getid@c_TimeTrigger@AdvionObjects@@UEBAPEBDXZ
    1488 0x108020  ?getid@c_TriangleAnalogOutputSmoothing@AdvionObjects@@UEBAPEBDXZ
    1489  0x52cf0  ?getid@c_UVAnalogOutput@AdvionLCObjects@@UEBAPEBDXZ
    1490  0x52d00  ?getid@c_UVChannelAnalogOutput@AdvionLCObjects@@UEBAPEBDXZ
    1491  0x52d10  ?getid@c_UVChannelScanMode@AdvionLCObjects@@UEBAPEBDXZ
    1492  0x52d20  ?getid@c_UVDetectorMethod@AdvionLCObjects@@UEBAPEBDXZ
    1493  0x52d30  ?getid@c_UVRangeScanMode@AdvionLCObjects@@UEBAPEBDXZ
    1494  0x52d40  ?getid@c_UVScanMode@AdvionLCObjects@@UEBAPEBDXZ
    1495 0x108030  ?getid@c_XICAnalogOutput@AdvionObjects@@UEBAPEBDXZ
    1496 0x108040  ?getid@c_XICChromGraphInfo@AdvionObjects@@UEBAPEBDXZ
    1497 0x108050  ?getid@c_XICPeakTrigger@AdvionObjects@@UEBAPEBDXZ
    1498  0x52d50  ?has_id@c_AdvionColumnOvenMethodType@AdvionLCObjects@@UEBA_NPEBD@Z
    1499  0x52dc0  ?has_id@c_AdvionUVMethodType@AdvionLCObjects@@UEBA_NPEBD@Z
    1500  0x52e30  ?has_id@c_AliasMethodType@AdvionLCObjects@@UEBA_NPEBD@Z
    1501 0x108060  ?has_id@c_AnalogOutput@AdvionObjects@@UEBA_NPEBD@Z
    1502 0x1080b0  ?has_id@c_AnalogOutputSmoothing@AdvionObjects@@UEBA_NPEBD@Z
    1503  0x694e0  ?has_id@c_ApciSource@AdvionObjects@@UEBA_NPEBD@Z
    1504  0x52ea0  ?has_id@c_AvantSamplerMethodType@AdvionLCObjects@@UEBA_NPEBD@Z
    1505 0x108100  ?has_id@c_BackgroundSpectrumGraphInfo@AdvionObjects@@UEBA_NPEBD@Z
    1506 0x108170  ?has_id@c_BasePeakChromGraphInfo@AdvionObjects@@UEBA_NPEBD@Z
    1507 0x1081e0  ?has_id@c_BaselineRemoval@AdvionObjects@@UEBA_NPEBD@Z
    1508 0x108230  ?has_id@c_BoxFilter@AdvionObjects@@UEBA_NPEBD@Z
    1509 0x1082a0  ?has_id@c_ChromGraphInfo@AdvionObjects@@UEBA_NPEBD@Z
    1510 0x108310  ?has_id@c_ClosureOutTrigger@AdvionObjects@@UEBA_NPEBD@Z
    1511  0x52f10  ?has_id@c_ColumnOvenMethod@AdvionLCObjects@@UEBA_NPEBD@Z
    1512  0x69550  ?has_id@c_DartSource@AdvionObjects@@UEBA_NPEBD@Z
    1513 0x108360  ?has_id@c_DeltaICAnalogOutput@AdvionObjects@@UEBA_NPEBD@Z
    1514 0x1083d0  ?has_id@c_DeltaICPeakTrigger@AdvionObjects@@UEBA_NPEBD@Z
    1515 0x108440  ?has_id@c_DeltaXICAnalogOutput@AdvionObjects@@UEBA_NPEBD@Z
    1516 0x1084b0  ?has_id@c_DeltaXICPeakTrigger@AdvionObjects@@UEBA_NPEBD@Z
    1517  0x695c0  ?has_id@c_EsiSource@AdvionObjects@@UEBA_NPEBD@Z
    1518 0x108520  ?has_id@c_ExtractedAnalogOutput@AdvionObjects@@UEBA_NPEBD@Z
    1519 0x108590  ?has_id@c_ExtractedPeakTrigger@AdvionObjects@@UEBA_NPEBD@Z
    1520 0x108600  ?has_id@c_Filter@AdvionObjects@@UEBA_NPEBD@Z
    1521 0x108650  ?has_id@c_GlobalPeakDetection@AdvionObjects@@UEBA_NPEBD@Z
    1522  0x52f60  ?has_id@c_GradientPumpType@AdvionLCObjects@@UEBA_NPEBD@Z
    1523 0x1086c0  ?has_id@c_GraphInfo@AdvionObjects@@UEBA_NPEBD@Z
    1524  0x69630  ?has_id@c_IonSource@AdvionObjects@@UEBA_NPEBD@Z
    1525 0x108710  ?has_id@c_ParentChromGraphInfo@AdvionObjects@@UEBA_NPEBD@Z
    1526 0x108780  ?has_id@c_PeakDetectionType@AdvionObjects@@UEBA_NPEBD@Z
    1527 0x1087d0  ?has_id@c_PeakTrigger@AdvionObjects@@UEBA_NPEBD@Z
    1528  0x52fd0  ?has_id@c_PumpMethod@AdvionLCObjects@@UEBA_NPEBD@Z
    1529 0x108840  ?has_id@c_RangeScanMode@AdvionObjects@@UEBA_NPEBD@Z
    1530 0x1088b0  ?has_id@c_RepeatTimeTrigger@AdvionObjects@@UEBA_NPEBD@Z
    1531 0x108920  ?has_id@c_SIMAnalogOutput@AdvionObjects@@UEBA_NPEBD@Z
    1532 0x108990  ?has_id@c_SIMPeakTrigger@AdvionObjects@@UEBA_NPEBD@Z
    1533 0x108a00  ?has_id@c_SIMScanMode@AdvionObjects@@UEBA_NPEBD@Z
    1534  0x53020  ?has_id@c_SamplerMethod@AdvionLCObjects@@UEBA_NPEBD@Z
    1535 0x108a70  ?has_id@c_ScalarChannelChromGraphInfo@AdvionObjects@@UEBA_NPEBD@Z
    1536 0x108ae0  ?has_id@c_ScanMode@AdvionObjects@@UEBA_NPEBD@Z
    1537 0x108b30  ?has_id@c_SpectrumGraphInfo@AdvionObjects@@UEBA_NPEBD@Z
    1538 0x108ba0  ?has_id@c_TICAnalogOutput@AdvionObjects@@UEBA_NPEBD@Z
    1539 0x108c10  ?has_id@c_TICChromGraphInfo@AdvionObjects@@UEBA_NPEBD@Z
    1540 0x108c80  ?has_id@c_TICPeakTrigger@AdvionObjects@@UEBA_NPEBD@Z
    1541 0x108cf0  ?has_id@c_TimeBaselineRemoval@AdvionObjects@@UEBA_NPEBD@Z
    1542 0x108d60  ?has_id@c_TimeTrigger@AdvionObjects@@UEBA_NPEBD@Z
    1543 0x108dd0  ?has_id@c_TriangleAnalogOutputSmoothing@AdvionObjects@@UEBA_NPEBD@Z
    1544  0x53070  ?has_id@c_UVAnalogOutput@AdvionLCObjects@@UEBA_NPEBD@Z
    1545  0x530c0  ?has_id@c_UVChannelAnalogOutput@AdvionLCObjects@@UEBA_NPEBD@Z
    1546  0x53130  ?has_id@c_UVChannelScanMode@AdvionLCObjects@@UEBA_NPEBD@Z
    1547  0x531a0  ?has_id@c_UVDetectorMethod@AdvionLCObjects@@UEBA_NPEBD@Z
    1548  0x531f0  ?has_id@c_UVRangeScanMode@AdvionLCObjects@@UEBA_NPEBD@Z
    1549  0x53260  ?has_id@c_UVScanMode@AdvionLCObjects@@UEBA_NPEBD@Z
    1550 0x108e40  ?has_id@c_XICAnalogOutput@AdvionObjects@@UEBA_NPEBD@Z
    1551 0x108eb0  ?has_id@c_XICChromGraphInfo@AdvionObjects@@UEBA_NPEBD@Z
    1552 0x108f20  ?has_id@c_XICPeakTrigger@AdvionObjects@@UEBA_NPEBD@Z
    1553 0x16ccd8  ?id@c_AdvionColumnOvenMethodType@AdvionLCObjects@@2QEBDEB
    1554 0x16d860  ?id@c_AdvionUVMethodType@AdvionLCObjects@@2QEBDEB
    1555 0x16c2e8  ?id@c_AliasMethodType@AdvionLCObjects@@2QEBDEB
    1556 0x18c240  ?id@c_AnalogOutput@AdvionObjects@@2QEBDEB
    1557 0x188718  ?id@c_AnalogOutputSmoothing@AdvionObjects@@2QEBDEB
    1558 0x183468  ?id@c_ApciSource@AdvionObjects@@2QEBDEB
    1559 0x16fe98  ?id@c_AvantSamplerMethodType@AdvionLCObjects@@2QEBDEB
    1560 0x188a40  ?id@c_BackgroundSpectrumGraphInfo@AdvionObjects@@2QEBDEB
    1561 0x18cd48  ?id@c_BasePeakChromGraphInfo@AdvionObjects@@2QEBDEB
    1562 0x186c60  ?id@c_BaselineRemoval@AdvionObjects@@2QEBDEB
    1563 0x18b2e0  ?id@c_BoxFilter@AdvionObjects@@2QEBDEB
    1564 0x189560  ?id@c_ChromGraphInfo@AdvionObjects@@2QEBDEB
    1565 0x18c748  ?id@c_ClosureOutTrigger@AdvionObjects@@2QEBDEB
    1566 0x16f3f0  ?id@c_ColumnOvenMethod@AdvionLCObjects@@2QEBDEB
    1567 0x183a28  ?id@c_DartSource@AdvionObjects@@2QEBDEB
    1568 0x186380  ?id@c_DeltaICAnalogOutput@AdvionObjects@@2QEBDEB
    1569 0x18b118  ?id@c_DeltaICPeakTrigger@AdvionObjects@@2QEBDEB
    1570 0x187130  ?id@c_DeltaXICAnalogOutput@AdvionObjects@@2QEBDEB
    1571 0x18bac8  ?id@c_DeltaXICPeakTrigger@AdvionObjects@@2QEBDEB
    1572 0x183628  ?id@c_EsiSource@AdvionObjects@@2QEBDEB
    1573 0x18e568  ?id@c_ExtractedAnalogOutput@AdvionObjects@@2QEBDEB
    1574 0x1884b8  ?id@c_ExtractedPeakTrigger@AdvionObjects@@2QEBDEB
    1575 0x189b28  ?id@c_Filter@AdvionObjects@@2QEBDEB
    1576 0x186728  ?id@c_GlobalPeakDetection@AdvionObjects@@2QEBDEB
    1577 0x16fa28  ?id@c_GradientPumpType@AdvionLCObjects@@2QEBDEB
    1578 0x18e018  ?id@c_GraphInfo@AdvionObjects@@2QEBDEB
    1579 0x1833b0  ?id@c_IonSource@AdvionObjects@@2QEBDEB
    1580 0x18a198  ?id@c_ParentChromGraphInfo@AdvionObjects@@2QEBDEB
    1581 0x186bb8  ?id@c_PeakDetectionType@AdvionObjects@@2QEBDEB
    1582 0x1862b0  ?id@c_PeakTrigger@AdvionObjects@@2QEBDEB
    1583 0x16e7c0  ?id@c_PumpMethod@AdvionLCObjects@@2QEBDEB
    1584 0x18d020  ?id@c_RangeScanMode@AdvionObjects@@2QEBDEB
    1585 0x18f398  ?id@c_RepeatTimeTrigger@AdvionObjects@@2QEBDEB
    1586 0x185860  ?id@c_SIMAnalogOutput@AdvionObjects@@2QEBDEB
    1587 0x18a0e8  ?id@c_SIMPeakTrigger@AdvionObjects@@2QEBDEB
    1588 0x18f9d0  ?id@c_SIMScanMode@AdvionObjects@@2QEBDEB
    1589 0x16ef08  ?id@c_SamplerMethod@AdvionLCObjects@@2QEBDEB
    1590 0x18dad0  ?id@c_ScalarChannelChromGraphInfo@AdvionObjects@@2QEBDEB
    1591 0x18c248  ?id@c_ScanMode@AdvionObjects@@2QEBDEB
    1592 0x1876f0  ?id@c_SpectrumGraphInfo@AdvionObjects@@2QEBDEB
    1593 0x18d748  ?id@c_TICAnalogOutput@AdvionObjects@@2QEBDEB
    1594 0x18b228  ?id@c_TICChromGraphInfo@AdvionObjects@@2QEBDEB
    1595 0x187a98  ?id@c_TICPeakTrigger@AdvionObjects@@2QEBDEB
    1596 0x187aa0  ?id@c_TimeBaselineRemoval@AdvionObjects@@2QEBDEB
    1597 0x18e138  ?id@c_TimeTrigger@AdvionObjects@@2QEBDEB
    1598 0x1895c8  ?id@c_TriangleAnalogOutputSmoothing@AdvionObjects@@2QEBDEB
    1599 0x16e150  ?id@c_UVAnalogOutput@AdvionLCObjects@@2QEBDEB
    1600 0x16efd0  ?id@c_UVChannelAnalogOutput@AdvionLCObjects@@2QEBDEB
    1601 0x170d38  ?id@c_UVChannelScanMode@AdvionLCObjects@@2QEBDEB
    1602 0x16faf8  ?id@c_UVDetectorMethod@AdvionLCObjects@@2QEBDEB
    1603 0x16ccc8  ?id@c_UVRangeScanMode@AdvionLCObjects@@2QEBDEB
    1604 0x170480  ?id@c_UVScanMode@AdvionLCObjects@@2QEBDEB
    1605 0x18f748  ?id@c_XICAnalogOutput@AdvionObjects@@2QEBDEB
    1606 0x18c098  ?id@c_XICChromGraphInfo@AdvionObjects@@2QEBDEB
    1607 0x1893e8  ?id@c_XICPeakTrigger@AdvionObjects@@2QEBDEB
    1608  0x76c30  ?init@c_AdditionalInfo@AdvionObjects@@AEAAXXZ
    1609  0x1a3c0  ?init@c_AdvionColumnOvenMethodType@AdvionLCObjects@@AEAAXXZ
    1610  0x18280  ?init@c_AdvionLCMethod@AdvionLCObjects@@AEAAXXZ
    1611  0x17000  ?init@c_AdvionLCMethodType@AdvionLCObjects@@AEAAXXZ
    1612  0x1e2a0  ?init@c_AdvionUVMethodType@AdvionLCObjects@@AEAAXXZ
    1613  0x1c9d0  ?init@c_AliasMethodType@AdvionLCObjects@@AEAAXXZ
    1614  0x6e3e0  ?init@c_AnalogInput@AdvionObjects@@AEAAXXZ
    1615  0x87800  ?init@c_AnalogInputs@AdvionObjects@@AEAAXXZ
    1616  0x82f40  ?init@c_AnalogOutput@AdvionObjects@@AEAAXXZ
    1617  0x80b60  ?init@c_AnalogOutputSmoothing@AdvionObjects@@AEAAXXZ
    1618  0x980f0  ?init@c_AnalogOutputs@AdvionObjects@@AEAAXXZ
    1619  0x9be20  ?init@c_Analyte@AdvionObjects@@AEAAXXZ
    1620  0x8c890  ?init@c_AnalyteSettings@AdvionObjects@@AEAAXXZ
    1621  0x63720  ?init@c_ApciSource@AdvionObjects@@AEAAXXZ
    1622  0x11be0  ?init@c_AvantSamplerCooling@AdvionLCObjects@@AEAAXXZ
    1623   0xfdc0  ?init@c_AvantSamplerInjection@AdvionLCObjects@@AEAAXXZ
    1624  0x1c140  ?init@c_AvantSamplerMethodType@AdvionLCObjects@@AEAAXXZ
    1625  0x12620  ?init@c_AvantSamplerValveWash@AdvionLCObjects@@AEAAXXZ
    1626  0x10fa0  ?init@c_AvantSamplerWashLine@AdvionLCObjects@@AEAAXXZ
    1627  0x8ff60  ?init@c_BackgroundOptions@AdvionObjects@@AEAAXXZ
    1628  0x7be20  ?init@c_BackgroundSpectrum@AdvionObjects@@AEAAXXZ
    1629  0x933f0  ?init@c_BackgroundSpectrumGraphInfo@AdvionObjects@@AEAAXXZ
    1630  0x968e0  ?init@c_BasePeakChromGraphInfo@AdvionObjects@@AEAAXXZ
    1631  0x7f620  ?init@c_BaselineRemoval@AdvionObjects@@AEAAXXZ
    1632  0x7cee0  ?init@c_BoxFilter@AdvionObjects@@AEAAXXZ
    1633  0x78320  ?init@c_CalibrationAnalyte@AdvionObjects@@AEAAXXZ
    1634  0x8a060  ?init@c_CalibrationStandard@AdvionObjects@@AEAAXXZ
    1635  0x93f10  ?init@c_ChromGraphInfo@AdvionObjects@@AEAAXXZ
    1636  0x6f0c0  ?init@c_ClosureOutTrigger@AdvionObjects@@AEAAXXZ
    1637   0xe090  ?init@c_ClosureTriggerIn@AdvionLCObjects@@AEAAXXZ
    1638  0x77940  ?init@c_ClosureTriggerIn@AdvionObjects@@AEAAXXZ
    1639 0x1367c0  ?init@c_CmsTuneParametersType@AdvionObjects@@AEAAXXZ
    1640   0x71f0  ?init@c_ColumnOvenMethod@AdvionLCObjects@@AEAAXXZ
    1641  0x1afd0  ?init@c_ContactClosureIn@AdvionLCObjects@@AEAAXXZ
    1642  0x89290  ?init@c_ContactClosureIn@AdvionObjects@@AEAAXXZ
    1643  0x88760  ?init@c_ContactClosureOut@AdvionObjects@@AEAAXXZ
    1644  0x98cc0  ?init@c_ContactClosuresOut@AdvionObjects@@AEAAXXZ
    1645  0x64dd0  ?init@c_DartSource@AdvionObjects@@AEAAXXZ
    1646  0x6b6a0  ?init@c_DeltaBackgroundParameters@AdvionObjects@@AEAAXXZ
    1647  0x86350  ?init@c_DeltaICAnalogOutput@AdvionObjects@@AEAAXXZ
    1648  0x75920  ?init@c_DeltaICPeakTrigger@AdvionObjects@@AEAAXXZ
    1649  0x86c30  ?init@c_DeltaXICAnalogOutput@AdvionObjects@@AEAAXXZ
    1650  0x76200  ?init@c_DeltaXICPeakTrigger@AdvionObjects@@AEAAXXZ
    1651   0xc720  ?init@c_DiverterValveMethod@AdvionLCObjects@@AEAAXXZ
    1652  0x643a0  ?init@c_EsiSource@AdvionObjects@@AEAAXXZ
    1653  0x84620  ?init@c_ExtractedAnalogOutput@AdvionObjects@@AEAAXXZ
    1654  0x73bf0  ?init@c_ExtractedPeakTrigger@AdvionObjects@@AEAAXXZ
    1655  0x7c4f0  ?init@c_Filter@AdvionObjects@@AEAAXXZ
    1656  0x8f240  ?init@c_GlobalPeakDetection@AdvionObjects@@AEAAXXZ
    1657   0xd2f0  ?init@c_GradientMethod@AdvionLCObjects@@AEAAXXZ
    1658  0x201f0  ?init@c_GradientPumpType@AdvionLCObjects@@AEAAXXZ
    1659  0x91b20  ?init@c_GraphInfo@AdvionObjects@@AEAAXXZ
    1660 0x1274b0  ?init@c_IntegrationBaseline@AdvionObjects@@AEAAXXZ
    1661  0x7b440  ?init@c_IntegrationPoint@AdvionObjects@@AEAAXXZ
    1662  0x62a00  ?init@c_IonSource@AdvionObjects@@AEAAXXZ
    1663  0x6c9a0  ?init@c_MassOfInterest@AdvionObjects@@AEAAXXZ
    1664  0xa24e0  ?init@c_MethodType@AdvionObjects@@AEAAXXZ
    1665  0x94910  ?init@c_ParentChromGraphInfo@AdvionObjects@@AEAAXXZ
    1666 0x1287c0  ?init@c_Peak@AdvionObjects@@AEAAXXZ
    1667  0x7a490  ?init@c_PeakDetectionType@AdvionObjects@@AEAAXXZ
    1668  0x72480  ?init@c_PeakTrigger@AdvionObjects@@AEAAXXZ
    1669   0x64b0  ?init@c_PumpMethod@AdvionLCObjects@@AEAAXXZ
    1670  0x79d70  ?init@c_QuantScanMode@AdvionObjects@@AEAAXXZ
    1671  0xa02c0  ?init@c_QuantitationType@AdvionObjects@@AEAAXXZ
    1672  0x7e190  ?init@c_RangeScanMode@AdvionObjects@@AEAAXXZ
    1673  0x70940  ?init@c_RepeatTimeTrigger@AdvionObjects@@AEAAXXZ
    1674  0x85a30  ?init@c_SIMAnalogOutput@AdvionObjects@@AEAAXXZ
    1675  0x75000  ?init@c_SIMPeakTrigger@AdvionObjects@@AEAAXXZ
    1676  0x7ed00  ?init@c_SIMScanMode@AdvionObjects@@AEAAXXZ
    1677   0x6b80  ?init@c_SamplerMethod@AdvionLCObjects@@AEAAXXZ
    1678  0x973a0  ?init@c_ScalarChannelChromGraphInfo@AdvionObjects@@AEAAXXZ
    1679  0x6a700  ?init@c_ScanMode@AdvionObjects@@AEAAXXZ
    1680  0x78f90  ?init@c_SemiQuantIsotope@AdvionObjects@@AEAAXXZ
    1681  0x998b0  ?init@c_SemiQuantSettings@AdvionObjects@@AEAAXXZ
    1682  0x8ad20  ?init@c_SemiQuantStandard@AdvionObjects@@AEAAXXZ
    1683  0x6d4d0  ?init@c_Smoothing@AdvionObjects@@AEAAXXZ
    1684  0x92ab0  ?init@c_SpectrumGraphInfo@AdvionObjects@@AEAAXXZ
    1685  0x83940  ?init@c_TICAnalogOutput@AdvionObjects@@AEAAXXZ
    1686  0x951f0  ?init@c_TICChromGraphInfo@AdvionObjects@@AEAAXXZ
    1687  0x72f10  ?init@c_TICPeakTrigger@AdvionObjects@@AEAAXXZ
    1688  0x801d0  ?init@c_TimeBaselineRemoval@AdvionObjects@@AEAAXXZ
    1689  0x6fb30  ?init@c_TimeTrigger@AdvionObjects@@AEAAXXZ
    1690  0x81590  ?init@c_TriangleAnalogOutputSmoothing@AdvionObjects@@AEAAXXZ
    1691   0xac40  ?init@c_UVAnalogOutput@AdvionLCObjects@@AEAAXXZ
    1692   0xa230  ?init@c_UVChannel@AdvionLCObjects@@AEAAXXZ
    1693   0xb990  ?init@c_UVChannelAnalogOutput@AdvionLCObjects@@AEAAXXZ
    1694  0x190b0  ?init@c_UVChannelScanMode@AdvionLCObjects@@AEAAXXZ
    1695   0x7860  ?init@c_UVDetectorMethod@AdvionLCObjects@@AEAAXXZ
    1696   0x9270  ?init@c_UVRangeScanMode@AdvionLCObjects@@AEAAXXZ
    1697   0x81e0  ?init@c_UVScanMode@AdvionLCObjects@@AEAAXXZ
    1698  0x84f70  ?init@c_XICAnalogOutput@AdvionObjects@@AEAAXXZ
    1699  0x95d30  ?init@c_XICChromGraphInfo@AdvionObjects@@AEAAXXZ
    1700  0x74540  ?init@c_XICPeakTrigger@AdvionObjects@@AEAAXXZ
    1701  0x9a2f0  ?init@c_additionalMasses@c_Analyte@AdvionObjects@@AEAAXXZ
    1702 0x1336a0  ?init@c_calibration@AdvionObjects@@AEAAXXZ
    1703 0x132c30  ?init@c_calibrationSegment@AdvionObjects@@AEAAXXZ
    1704  0x66e20  ?init@c_ionSourceOptimization@AdvionObjects@@AEAAXXZ
    1705 0x134d30  ?init@c_massCalibration@AdvionObjects@@AEAAXXZ
    1706  0xa3830  ?init@c_method@AdvionObjects@@AEAAXXZ
    1707  0x8dd30  ?init@c_peakDetection@AdvionObjects@@AEAAXXZ
    1708 0x12a060  ?init@c_peakList@AdvionObjects@@AEAAXXZ
    1709  0x9e1c0  ?init@c_processMethod@AdvionObjects@@AEAAXXZ
    1710 0x134360  ?init@c_speedCalibration@AdvionObjects@@AEAAXXZ
    1711 0x137ba0  ?init@c_tuneParameters@AdvionObjects@@AEAAXXZ
    1712  0x15b80  ?init@c_uvDetectorDeviceInfo@AdvionLCObjects@@AEAAXXZ
    1713 0x10ba50  ?insert_additionalInfo@c_MethodType@AdvionObjects@@QEAA?AW4elmx_error@lmx@@_K@Z
    1714 0x10bae0  ?insert_additionalInfo@c_MethodType@AdvionObjects@@QEAA?AW4elmx_error@lmx@@_KPEAVc_AdditionalInfo@2@@Z
    1715  0x53fc0  ?insert_allowedChannelScanRate@c_uvDetectorDeviceInfo@AdvionLCObjects@@QEAA?AW4elmx_error@lmx@@_KAEBN@Z
    1716  0x54010  ?insert_allowedFilterTime@c_uvDetectorDeviceInfo@AdvionLCObjects@@QEAA?AW4elmx_error@lmx@@_KAEBN@Z
    1717  0x54060  ?insert_allowedSpectrumScanRate@c_uvDetectorDeviceInfo@AdvionLCObjects@@QEAA?AW4elmx_error@lmx@@_KAEBN@Z
    1718  0x540b0  ?insert_analogOutput@c_AdvionUVMethodType@AdvionLCObjects@@QEAA?AW4elmx_error@lmx@@_K@Z
    1719  0x1d030  ?insert_analogOutput@c_AdvionUVMethodType@AdvionLCObjects@@QEAA?AW4elmx_error@lmx@@_KPEAVc_UVAnalogOutput@2@@Z
    1720 0x10bb70  ?insert_analyte@c_QuantitationType@AdvionObjects@@QEAA?AW4elmx_error@lmx@@_K@Z
    1721 0x10bc00  ?insert_analyte@c_QuantitationType@AdvionObjects@@QEAA?AW4elmx_error@lmx@@_KPEAVc_Analyte@2@@Z
    1722 0x10bc90  ?insert_appliedFilters@c_GraphInfo@AdvionObjects@@QEAA?AW4elmx_error@lmx@@_K@Z
    1723 0x10bd20  ?insert_appliedFilters@c_GraphInfo@AdvionObjects@@QEAA?AW4elmx_error@lmx@@_KPEAVc_Filter@2@@Z
    1724 0x10bdb0  ?insert_backgroundSpectra@c_BackgroundOptions@AdvionObjects@@QEAA?AW4elmx_error@lmx@@_K@Z
    1725 0x10be40  ?insert_backgroundSpectra@c_BackgroundOptions@AdvionObjects@@QEAA?AW4elmx_error@lmx@@_KPEAVc_BackgroundSpectrum@2@@Z
    1726 0x10bed0  ?insert_backgroundSpectrum@c_GraphInfo@AdvionObjects@@QEAA?AW4elmx_error@lmx@@_K@Z
    1727 0x10bf60  ?insert_backgroundSpectrum@c_GraphInfo@AdvionObjects@@QEAA?AW4elmx_error@lmx@@_KPEAVc_BackgroundSpectrum@2@@Z
    1728 0x141130  ?insert_calibration@c_massCalibration@AdvionObjects@@QEAA?AW4elmx_error@lmx@@_K@Z
    1729 0x1411c0  ?insert_calibration@c_massCalibration@AdvionObjects@@QEAA?AW4elmx_error@lmx@@_KPEAVc_speedCalibration@2@@Z
    1730 0x10bff0  ?insert_calibrationAnalyte@c_CalibrationStandard@AdvionObjects@@QEAA?AW4elmx_error@lmx@@_K@Z
    1731 0x10c080  ?insert_calibrationAnalyte@c_CalibrationStandard@AdvionObjects@@QEAA?AW4elmx_error@lmx@@_KPEAVc_CalibrationAnalyte@2@@Z
    1732 0x10c110  ?insert_calibrationStandard@c_QuantitationType@AdvionObjects@@QEAA?AW4elmx_error@lmx@@_K@Z
    1733 0x10c1a0  ?insert_calibrationStandard@c_QuantitationType@AdvionObjects@@QEAA?AW4elmx_error@lmx@@_KPEAVc_CalibrationStandard@2@@Z
    1734  0x54140  ?insert_channel@c_UVChannelScanMode@AdvionLCObjects@@QEAA?AW4elmx_error@lmx@@_K@Z
    1735  0x18700  ?insert_channel@c_UVChannelScanMode@AdvionLCObjects@@QEAA?AW4elmx_error@lmx@@_KPEAVc_UVChannel@2@@Z
    1736 0x10c230  ?insert_chromInfos@c_processMethod@AdvionObjects@@QEAA?AW4elmx_error@lmx@@_K@Z
    1737 0x10c2c0  ?insert_chromInfos@c_processMethod@AdvionObjects@@QEAA?AW4elmx_error@lmx@@_KPEAVc_ChromGraphInfo@2@@Z
    1738 0x10c350  ?insert_contactClosure@c_ContactClosuresOut@AdvionObjects@@QEAA?AW4elmx_error@lmx@@_K@Z
    1739  0x984b0  ?insert_contactClosure@c_ContactClosuresOut@AdvionObjects@@QEAA?AW4elmx_error@lmx@@_KPEAVc_ContactClosureOut@2@@Z
    1740 0x10c3e0  ?insert_defaultStandard@c_SemiQuantSettings@AdvionObjects@@QEAA?AW4elmx_error@lmx@@_K@Z
    1741 0x10c470  ?insert_defaultStandard@c_SemiQuantSettings@AdvionObjects@@QEAA?AW4elmx_error@lmx@@_KPEAVc_SemiQuantStandard@2@@Z
    1742 0x10c500  ?insert_filter@c_AnalyteSettings@AdvionObjects@@QEAA?AW4elmx_error@lmx@@_K@Z
    1743 0x10c590  ?insert_filter@c_AnalyteSettings@AdvionObjects@@QEAA?AW4elmx_error@lmx@@_KPEAVc_Filter@2@@Z
    1744  0x541d0  ?insert_gradient@c_GradientPumpType@AdvionLCObjects@@QEAA?AW4elmx_error@lmx@@_K@Z
    1745  0x54260  ?insert_gradient@c_GradientPumpType@AdvionLCObjects@@QEAA?AW4elmx_error@lmx@@_KPEAVc_GradientMethod@2@@Z
    1746 0x10c620  ?insert_input@c_AnalogInputs@AdvionObjects@@QEAA?AW4elmx_error@lmx@@_K@Z
    1747  0x86ff0  ?insert_input@c_AnalogInputs@AdvionObjects@@QEAA?AW4elmx_error@lmx@@_KPEAVc_AnalogInput@2@@Z
    1748 0x10c6b0  ?insert_integrationPoint@c_GlobalPeakDetection@AdvionObjects@@QEAA?AW4elmx_error@lmx@@_K@Z
    1749 0x10c740  ?insert_integrationPoint@c_GlobalPeakDetection@AdvionObjects@@QEAA?AW4elmx_error@lmx@@_KPEAVc_IntegrationPoint@2@@Z
    1750 0x10c7d0  ?insert_intensity@c_SemiQuantStandard@AdvionObjects@@QEAA?AW4elmx_error@lmx@@_KAEBN@Z
    1751 0x10c820  ?insert_internalStandard@c_QuantitationType@AdvionObjects@@QEAA?AW4elmx_error@lmx@@_K@Z
    1752 0x10c8b0  ?insert_internalStandard@c_QuantitationType@AdvionObjects@@QEAA?AW4elmx_error@lmx@@_KPEAVc_Analyte@2@@Z
    1753  0x99cd0  ?insert_mass@c_additionalMasses@c_Analyte@AdvionObjects@@QEAA?AW4elmx_error@lmx@@_KAEBN@Z
    1754 0x10c940  ?insert_massOfInterest@c_SIMScanMode@AdvionObjects@@QEAA?AW4elmx_error@lmx@@_K@Z
    1755 0x10c9d0  ?insert_massOfInterest@c_SIMScanMode@AdvionObjects@@QEAA?AW4elmx_error@lmx@@_KPEAVc_MassOfInterest@2@@Z
    1756 0x10ca60  ?insert_output@c_AnalogOutputs@AdvionObjects@@QEAA?AW4elmx_error@lmx@@_K@Z
    1757  0x977a0  ?insert_output@c_AnalogOutputs@AdvionObjects@@QEAA?AW4elmx_error@lmx@@_KPEAVc_AnalogOutput@2@@Z
    1758 0x130820  ?insert_peak@c_peakList@AdvionObjects@@QEAA?AW4elmx_error@lmx@@_K@Z
    1759 0x1308b0  ?insert_peak@c_peakList@AdvionObjects@@QEAA?AW4elmx_error@lmx@@_KPEAVc_Peak@2@@Z
    1760 0x10caf0  ?insert_peakDetections@c_GraphInfo@AdvionObjects@@QEAA?AW4elmx_error@lmx@@_K@Z
    1761 0x10cb80  ?insert_peakDetections@c_GraphInfo@AdvionObjects@@QEAA?AW4elmx_error@lmx@@_KPEAVc_PeakDetectionType@2@@Z
    1762 0x10cc10  ?insert_scanMode@c_MethodType@AdvionObjects@@QEAA?AW4elmx_error@lmx@@_K@Z
    1763  0xa0d00  ?insert_scanMode@c_MethodType@AdvionObjects@@QEAA?AW4elmx_error@lmx@@_KPEAVc_ScanMode@2@@Z
    1764 0x10cca0  ?insert_scanMode@c_QuantitationType@AdvionObjects@@QEAA?AW4elmx_error@lmx@@_K@Z
    1765  0x9ef00  ?insert_scanMode@c_QuantitationType@AdvionObjects@@QEAA?AW4elmx_error@lmx@@_KPEAVc_QuantScanMode@2@@Z
    1766 0x141250  ?insert_segment@c_calibration@AdvionObjects@@QEAA?AW4elmx_error@lmx@@_K@Z
    1767 0x1412e0  ?insert_segment@c_calibration@AdvionObjects@@QEAA?AW4elmx_error@lmx@@_KPEAVc_calibrationSegment@2@@Z
    1768 0x141370  ?insert_segment@c_speedCalibration@AdvionObjects@@QEAA?AW4elmx_error@lmx@@_K@Z
    1769 0x141400  ?insert_segment@c_speedCalibration@AdvionObjects@@QEAA?AW4elmx_error@lmx@@_KPEAVc_calibrationSegment@2@@Z
    1770 0x10cd30  ?insert_settings@c_Analyte@AdvionObjects@@QEAA?AW4elmx_error@lmx@@_K@Z
    1771 0x10cdc0  ?insert_settings@c_Analyte@AdvionObjects@@QEAA?AW4elmx_error@lmx@@_KPEAVc_AnalyteSettings@2@@Z
    1772 0x10ce50  ?insert_spectrumInfos@c_processMethod@AdvionObjects@@QEAA?AW4elmx_error@lmx@@_K@Z
    1773 0x10cee0  ?insert_spectrumInfos@c_processMethod@AdvionObjects@@QEAA?AW4elmx_error@lmx@@_KPEAVc_SpectrumGraphInfo@2@@Z
    1774   0xbf70  ?insert_timeEntry@c_DiverterValveMethod@AdvionLCObjects@@QEAA?AW4elmx_error@lmx@@_KAEBN@Z
    1775  0x542f0  ?insert_wash@c_AvantSamplerMethodType@AdvionLCObjects@@QEAA?AW4elmx_error@lmx@@_K@Z
    1776  0x54380  ?insert_wash@c_AvantSamplerMethodType@AdvionLCObjects@@QEAA?AW4elmx_error@lmx@@_KPEAVc_AvantSamplerWashLine@2@@Z
    1777 0x1228d0  ?isErrorCritical@ObjectUtility@AdvionObjects@@SA_NPEAW4ErrorCode@2@@Z
    1778  0x76560  ?is_occurs_ok@c_AdditionalInfo@AdvionObjects@@QEBA_NPEAVc_check_tracker@lmx@@@Z
    1779  0x19900  ?is_occurs_ok@c_AdvionColumnOvenMethodType@AdvionLCObjects@@QEBA_NPEAVc_check_tracker@lmx@@@Z
    1780  0x177b0  ?is_occurs_ok@c_AdvionLCMethod@AdvionLCObjects@@QEBA_NPEAVc_check_tracker@lmx@@@Z
    1781  0x551f0  ?is_occurs_ok@c_AdvionLCMethodType@AdvionLCObjects@@QEBA_NPEAVc_check_tracker@lmx@@@Z
    1782  0x1d130  ?is_occurs_ok@c_AdvionUVMethodType@AdvionLCObjects@@QEBA_NPEAVc_check_tracker@lmx@@@Z
    1783  0x1c3d0  ?is_occurs_ok@c_AliasMethodType@AdvionLCObjects@@QEBA_NPEAVc_check_tracker@lmx@@@Z
    1784  0x6db20  ?is_occurs_ok@c_AnalogInput@AdvionObjects@@QEBA_NPEAVc_check_tracker@lmx@@@Z
    1785  0x870f0  ?is_occurs_ok@c_AnalogInputs@AdvionObjects@@QEBA_NPEAVc_check_tracker@lmx@@@Z
    1786  0x82050  ?is_occurs_ok@c_AnalogOutput@AdvionObjects@@QEBA_NPEAVc_check_tracker@lmx@@@Z
    1787  0x805a0  ?is_occurs_ok@c_AnalogOutputSmoothing@AdvionObjects@@QEBA_NPEAVc_check_tracker@lmx@@@Z
    1788  0x978a0  ?is_occurs_ok@c_AnalogOutputs@AdvionObjects@@QEBA_NPEAVc_check_tracker@lmx@@@Z
    1789  0x9af60  ?is_occurs_ok@c_Analyte@AdvionObjects@@QEBA_NPEAVc_check_tracker@lmx@@@Z
    1790  0x8b9e0  ?is_occurs_ok@c_AnalyteSettings@AdvionObjects@@QEBA_NPEAVc_check_tracker@lmx@@@Z
    1791  0x62eb0  ?is_occurs_ok@c_ApciSource@AdvionObjects@@QEBA_NPEAVc_check_tracker@lmx@@@Z
    1792  0x11440  ?is_occurs_ok@c_AvantSamplerCooling@AdvionLCObjects@@QEBA_NPEAVc_check_tracker@lmx@@@Z
    1793   0xf160  ?is_occurs_ok@c_AvantSamplerInjection@AdvionLCObjects@@QEBA_NPEAVc_check_tracker@lmx@@@Z
    1794  0x1b510  ?is_occurs_ok@c_AvantSamplerMethodType@AdvionLCObjects@@QEBA_NPEAVc_check_tracker@lmx@@@Z
    1795  0x11f90  ?is_occurs_ok@c_AvantSamplerValveWash@AdvionLCObjects@@QEBA_NPEAVc_check_tracker@lmx@@@Z
    1796  0x107e0  ?is_occurs_ok@c_AvantSamplerWashLine@AdvionLCObjects@@QEBA_NPEAVc_check_tracker@lmx@@@Z
    1797 0x10d350  ?is_occurs_ok@c_BackgroundOptions@AdvionObjects@@QEBA_NPEAVc_check_tracker@lmx@@@Z
    1798 0x10d360  ?is_occurs_ok@c_BackgroundSpectrum@AdvionObjects@@QEBA_NPEAVc_check_tracker@lmx@@@Z
    1799  0x92de0  ?is_occurs_ok@c_BackgroundSpectrumGraphInfo@AdvionObjects@@QEBA_NPEAVc_check_tracker@lmx@@@Z
    1800  0x961a0  ?is_occurs_ok@c_BasePeakChromGraphInfo@AdvionObjects@@QEBA_NPEAVc_check_tracker@lmx@@@Z
    1801  0x7f060  ?is_occurs_ok@c_BaselineRemoval@AdvionObjects@@QEBA_NPEAVc_check_tracker@lmx@@@Z
    1802  0x7c870  ?is_occurs_ok@c_BoxFilter@AdvionObjects@@QEBA_NPEAVc_check_tracker@lmx@@@Z
    1803 0x10d370  ?is_occurs_ok@c_CalibrationAnalyte@AdvionObjects@@QEBA_NPEAVc_check_tracker@lmx@@@Z
    1804 0x10d380  ?is_occurs_ok@c_CalibrationStandard@AdvionObjects@@QEBA_NPEAVc_check_tracker@lmx@@@Z
    1805  0x93900  ?is_occurs_ok@c_ChromGraphInfo@AdvionObjects@@QEBA_NPEAVc_check_tracker@lmx@@@Z
    1806  0x6eb00  ?is_occurs_ok@c_ClosureOutTrigger@AdvionObjects@@QEBA_NPEAVc_check_tracker@lmx@@@Z
    1807   0xd800  ?is_occurs_ok@c_ClosureTriggerIn@AdvionLCObjects@@QEBA_NPEAVc_check_tracker@lmx@@@Z
    1808  0x770c0  ?is_occurs_ok@c_ClosureTriggerIn@AdvionObjects@@QEBA_NPEAVc_check_tracker@lmx@@@Z
    1809 0x135700  ?is_occurs_ok@c_CmsTuneParametersType@AdvionObjects@@QEBA_NPEAVc_check_tracker@lmx@@@Z
    1810  0x55200  ?is_occurs_ok@c_ColumnOvenMethod@AdvionLCObjects@@QEBA_NPEAVc_check_tracker@lmx@@@Z
    1811  0x1a800  ?is_occurs_ok@c_ContactClosureIn@AdvionLCObjects@@QEBA_NPEAVc_check_tracker@lmx@@@Z
    1812  0x88ad0  ?is_occurs_ok@c_ContactClosureIn@AdvionObjects@@QEBA_NPEAVc_check_tracker@lmx@@@Z
    1813  0x87be0  ?is_occurs_ok@c_ContactClosureOut@AdvionObjects@@QEBA_NPEAVc_check_tracker@lmx@@@Z
    1814  0x985b0  ?is_occurs_ok@c_ContactClosuresOut@AdvionObjects@@QEBA_NPEAVc_check_tracker@lmx@@@Z
    1815  0x64700  ?is_occurs_ok@c_DartSource@AdvionObjects@@QEBA_NPEAVc_check_tracker@lmx@@@Z
    1816  0x6ad00  ?is_occurs_ok@c_DeltaBackgroundParameters@AdvionObjects@@QEBA_NPEAVc_check_tracker@lmx@@@Z
    1817  0x85d30  ?is_occurs_ok@c_DeltaICAnalogOutput@AdvionObjects@@QEBA_NPEAVc_check_tracker@lmx@@@Z
    1818  0x75300  ?is_occurs_ok@c_DeltaICPeakTrigger@AdvionObjects@@QEBA_NPEAVc_check_tracker@lmx@@@Z
    1819  0x86610  ?is_occurs_ok@c_DeltaXICAnalogOutput@AdvionObjects@@QEBA_NPEAVc_check_tracker@lmx@@@Z
    1820  0x75be0  ?is_occurs_ok@c_DeltaXICPeakTrigger@AdvionObjects@@QEBA_NPEAVc_check_tracker@lmx@@@Z
    1821   0xbfd0  ?is_occurs_ok@c_DiverterValveMethod@AdvionLCObjects@@QEBA_NPEAVc_check_tracker@lmx@@@Z
    1822  0x63bc0  ?is_occurs_ok@c_EsiSource@AdvionObjects@@QEBA_NPEAVc_check_tracker@lmx@@@Z
    1823  0x83df0  ?is_occurs_ok@c_ExtractedAnalogOutput@AdvionObjects@@QEBA_NPEAVc_check_tracker@lmx@@@Z
    1824  0x733c0  ?is_occurs_ok@c_ExtractedPeakTrigger@AdvionObjects@@QEBA_NPEAVc_check_tracker@lmx@@@Z
    1825 0x10d390  ?is_occurs_ok@c_Filter@AdvionObjects@@QEBA_NPEAVc_check_tracker@lmx@@@Z
    1826  0x8e5e0  ?is_occurs_ok@c_GlobalPeakDetection@AdvionObjects@@QEBA_NPEAVc_check_tracker@lmx@@@Z
    1827   0xcb60  ?is_occurs_ok@c_GradientMethod@AdvionLCObjects@@QEBA_NPEAVc_check_tracker@lmx@@@Z
    1828  0x1f080  ?is_occurs_ok@c_GradientPumpType@AdvionLCObjects@@QEBA_NPEAVc_check_tracker@lmx@@@Z
    1829 0x10d3a0  ?is_occurs_ok@c_GraphInfo@AdvionObjects@@QEBA_NPEAVc_check_tracker@lmx@@@Z
    1830 0x126ab0  ?is_occurs_ok@c_IntegrationBaseline@AdvionObjects@@QEBA_NPEAVc_check_tracker@lmx@@@Z
    1831  0x7ac60  ?is_occurs_ok@c_IntegrationPoint@AdvionObjects@@QEBA_NPEAVc_check_tracker@lmx@@@Z
    1832  0x69680  ?is_occurs_ok@c_IonSource@AdvionObjects@@QEBA_NPEAVc_check_tracker@lmx@@@Z
    1833  0x6bf50  ?is_occurs_ok@c_MassOfInterest@AdvionObjects@@QEBA_NPEAVc_check_tracker@lmx@@@Z
    1834  0xa0e40  ?is_occurs_ok@c_MethodType@AdvionObjects@@QEBA_NPEAVc_check_tracker@lmx@@@Z
    1835  0x94260  ?is_occurs_ok@c_ParentChromGraphInfo@AdvionObjects@@QEBA_NPEAVc_check_tracker@lmx@@@Z
    1836 0x127ab0  ?is_occurs_ok@c_Peak@AdvionObjects@@QEBA_NPEAVc_check_tracker@lmx@@@Z
    1837 0x10d3b0  ?is_occurs_ok@c_PeakDetectionType@AdvionObjects@@QEBA_NPEAVc_check_tracker@lmx@@@Z
    1838  0x71600  ?is_occurs_ok@c_PeakTrigger@AdvionObjects@@QEBA_NPEAVc_check_tracker@lmx@@@Z
    1839  0x55210  ?is_occurs_ok@c_PumpMethod@AdvionLCObjects@@QEBA_NPEAVc_check_tracker@lmx@@@Z
    1840  0x795d0  ?is_occurs_ok@c_QuantScanMode@AdvionObjects@@QEBA_NPEAVc_check_tracker@lmx@@@Z
    1841  0x9f000  ?is_occurs_ok@c_QuantitationType@AdvionObjects@@QEBA_NPEAVc_check_tracker@lmx@@@Z
    1842  0x7d5a0  ?is_occurs_ok@c_RangeScanMode@AdvionObjects@@QEBA_NPEAVc_check_tracker@lmx@@@Z
    1843  0x70030  ?is_occurs_ok@c_RepeatTimeTrigger@AdvionObjects@@QEBA_NPEAVc_check_tracker@lmx@@@Z
    1844  0x85300  ?is_occurs_ok@c_SIMAnalogOutput@AdvionObjects@@QEBA_NPEAVc_check_tracker@lmx@@@Z
    1845  0x748d0  ?is_occurs_ok@c_SIMPeakTrigger@AdvionObjects@@QEBA_NPEAVc_check_tracker@lmx@@@Z
    1846  0x7e560  ?is_occurs_ok@c_SIMScanMode@AdvionObjects@@QEBA_NPEAVc_check_tracker@lmx@@@Z
    1847  0x55220  ?is_occurs_ok@c_SamplerMethod@AdvionLCObjects@@QEBA_NPEAVc_check_tracker@lmx@@@Z
    1848  0x96cf0  ?is_occurs_ok@c_ScalarChannelChromGraphInfo@AdvionObjects@@QEBA_NPEAVc_check_tracker@lmx@@@Z
    1849 0x10d3c0  ?is_occurs_ok@c_ScanMode@AdvionObjects@@QEBA_NPEAVc_check_tracker@lmx@@@Z
    1850  0x787e0  ?is_occurs_ok@c_SemiQuantIsotope@AdvionObjects@@QEBA_NPEAVc_check_tracker@lmx@@@Z
    1851  0x990c0  ?is_occurs_ok@c_SemiQuantSettings@AdvionObjects@@QEBA_NPEAVc_check_tracker@lmx@@@Z
    1852  0x8a480  ?is_occurs_ok@c_SemiQuantStandard@AdvionObjects@@QEBA_NPEAVc_check_tracker@lmx@@@Z
    1853  0x6ce50  ?is_occurs_ok@c_Smoothing@AdvionObjects@@QEBA_NPEAVc_check_tracker@lmx@@@Z
    1854  0x92230  ?is_occurs_ok@c_SpectrumGraphInfo@AdvionObjects@@QEBA_NPEAVc_check_tracker@lmx@@@Z
    1855  0x83320  ?is_occurs_ok@c_TICAnalogOutput@AdvionObjects@@QEBA_NPEAVc_check_tracker@lmx@@@Z
    1856  0x94be0  ?is_occurs_ok@c_TICChromGraphInfo@AdvionObjects@@QEBA_NPEAVc_check_tracker@lmx@@@Z
    1857  0x728f0  ?is_occurs_ok@c_TICPeakTrigger@AdvionObjects@@QEBA_NPEAVc_check_tracker@lmx@@@Z
    1858  0x7f9d0  ?is_occurs_ok@c_TimeBaselineRemoval@AdvionObjects@@QEBA_NPEAVc_check_tracker@lmx@@@Z
    1859  0x6f440  ?is_occurs_ok@c_TimeTrigger@AdvionObjects@@QEBA_NPEAVc_check_tracker@lmx@@@Z
    1860  0x80ea0  ?is_occurs_ok@c_TriangleAnalogOutputSmoothing@AdvionObjects@@QEBA_NPEAVc_check_tracker@lmx@@@Z
    1861   0xa670  ?is_occurs_ok@c_UVAnalogOutput@AdvionLCObjects@@QEBA_NPEAVc_check_tracker@lmx@@@Z
    1862   0x98e0  ?is_occurs_ok@c_UVChannel@AdvionLCObjects@@QEBA_NPEAVc_check_tracker@lmx@@@Z
    1863   0xb060  ?is_occurs_ok@c_UVChannelAnalogOutput@AdvionLCObjects@@QEBA_NPEAVc_check_tracker@lmx@@@Z
    1864  0x18800  ?is_occurs_ok@c_UVChannelScanMode@AdvionLCObjects@@QEBA_NPEAVc_check_tracker@lmx@@@Z
    1865  0x55230  ?is_occurs_ok@c_UVDetectorMethod@AdvionLCObjects@@QEBA_NPEAVc_check_tracker@lmx@@@Z
    1866   0x8820  ?is_occurs_ok@c_UVRangeScanMode@AdvionLCObjects@@QEBA_NPEAVc_check_tracker@lmx@@@Z
    1867   0x7c20  ?is_occurs_ok@c_UVScanMode@AdvionLCObjects@@QEBA_NPEAVc_check_tracker@lmx@@@Z
    1868  0x84950  ?is_occurs_ok@c_XICAnalogOutput@AdvionObjects@@QEBA_NPEAVc_check_tracker@lmx@@@Z
    1869  0x955f0  ?is_occurs_ok@c_XICChromGraphInfo@AdvionObjects@@QEBA_NPEAVc_check_tracker@lmx@@@Z
    1870  0x73f20  ?is_occurs_ok@c_XICPeakTrigger@AdvionObjects@@QEBA_NPEAVc_check_tracker@lmx@@@Z
    1871  0x99d30  ?is_occurs_ok@c_additionalMasses@c_Analyte@AdvionObjects@@QEBA_NPEAVc_check_tracker@lmx@@@Z
    1872 0x132fb0  ?is_occurs_ok@c_calibration@AdvionObjects@@QEBA_NPEAVc_check_tracker@lmx@@@Z
    1873 0x1323a0  ?is_occurs_ok@c_calibrationSegment@AdvionObjects@@QEBA_NPEAVc_check_tracker@lmx@@@Z
    1874  0x65d30  ?is_occurs_ok@c_ionSourceOptimization@AdvionObjects@@QEBA_NPEAVc_check_tracker@lmx@@@Z
    1875 0x134630  ?is_occurs_ok@c_massCalibration@AdvionObjects@@QEBA_NPEAVc_check_tracker@lmx@@@Z
    1876  0xa2d70  ?is_occurs_ok@c_method@AdvionObjects@@QEBA_NPEAVc_check_tracker@lmx@@@Z
    1877 0x10d3d0  ?is_occurs_ok@c_peakDetection@AdvionObjects@@QEBA_NPEAVc_check_tracker@lmx@@@Z
    1878 0x129320  ?is_occurs_ok@c_peakList@AdvionObjects@@QEBA_NPEAVc_check_tracker@lmx@@@Z
    1879 0x10d3e0  ?is_occurs_ok@c_processMethod@AdvionObjects@@QEBA_NPEAVc_check_tracker@lmx@@@Z
    1880 0x133a20  ?is_occurs_ok@c_speedCalibration@AdvionObjects@@QEBA_NPEAVc_check_tracker@lmx@@@Z
    1881 0x1370e0  ?is_occurs_ok@c_tuneParameters@AdvionObjects@@QEBA_NPEAVc_check_tracker@lmx@@@Z
    1882  0x142b0  ?is_occurs_ok@c_uvDetectorDeviceInfo@AdvionLCObjects@@QEBA_NPEAVc_check_tracker@lmx@@@Z
    1883  0x9ac00  ?isset_additionalMasses@c_Analyte@AdvionObjects@@QEBA_NXZ
    1884 0x10d8f0  ?isset_analogInputs@c_MethodType@AdvionObjects@@QEBA_NXZ
    1885 0x10d930  ?isset_analogOutputs@c_MethodType@AdvionObjects@@QEBA_NXZ
    1886  0x55b00  ?isset_analysisTime@c_AvantSamplerInjection@AdvionLCObjects@@QEBA_NXZ
    1887 0x10d970  ?isset_analyteId@c_CalibrationAnalyte@AdvionObjects@@QEBA_NXZ
    1888 0x10d9b0  ?isset_backgroundOptions@c_processMethod@AdvionObjects@@QEBA_NXZ
    1889 0x10d9f0  ?isset_backgroundSubtraction@c_QuantitationType@AdvionObjects@@QEBA_NXZ
    1890  0x55b40  ?isset_bandwidth@c_UVRangeScanMode@AdvionLCObjects@@QEBA_NXZ
    1891 0x10da30  ?isset_baselineRemoval@c_AnalogOutput@AdvionObjects@@QEBA_NXZ
    1892 0x125670  ?isset_calibration@c_CmsTuneParametersType@AdvionObjects@@QEBA_NXZ
    1893 0x10da70  ?isset_calibrationPath@c_QuantitationType@AdvionObjects@@QEBA_NXZ
    1894  0x55b80  ?isset_channelScanMode@c_AdvionUVMethodType@AdvionLCObjects@@QEBA_NXZ
    1895  0x55bc0  ?isset_columnDescription@c_GradientPumpType@AdvionLCObjects@@QEBA_NXZ
    1896  0x55c00  ?isset_columnIndex@c_AdvionColumnOvenMethodType@AdvionLCObjects@@QEBA_NXZ
    1897  0x55c40  ?isset_columnOven@c_AdvionLCMethodType@AdvionLCObjects@@QEBA_NXZ
    1898 0x1309e0  ?isset_commonBaseline@c_Peak@AdvionObjects@@QEBA_NXZ
    1899 0x10dab0  ?isset_concentration@c_CalibrationAnalyte@AdvionObjects@@QEBA_NXZ
    1900 0x10daf0  ?isset_concentrationUnits@c_Analyte@AdvionObjects@@QEBA_NXZ
    1901  0x55c80  ?isset_contactClosureIn@c_GradientPumpType@AdvionLCObjects@@QEBA_NXZ
    1902 0x10db30  ?isset_contactClosureIn@c_MethodType@AdvionObjects@@QEBA_NXZ
    1903 0x10db70  ?isset_contactClosuresOut@c_MethodType@AdvionObjects@@QEBA_NXZ
    1904  0x55cc0  ?isset_cooling@c_AvantSamplerMethodType@AdvionLCObjects@@QEBA_NXZ
    1905 0x10dbb0  ?isset_currentFilter@c_GraphInfo@AdvionObjects@@QEBA_NXZ
    1906 0x10dbf0  ?isset_delta@c_GraphInfo@AdvionObjects@@QEBA_NXZ
    1907 0x10dc30  ?isset_deltaBackgroundParameters@c_RangeScanMode@AdvionObjects@@QEBA_NXZ
    1908  0x69690  ?isset_description@c_ionSourceOptimization@AdvionObjects@@QEBA_NXZ
    1909  0x55d00  ?isset_diverterValve@c_AdvionColumnOvenMethodType@AdvionLCObjects@@QEBA_NXZ
    1910  0x55d40  ?isset_drawPositionOffset@c_AvantSamplerInjection@AdvionLCObjects@@QEBA_NXZ
    1911  0x55d80  ?isset_enableAnalysis@c_AdvionColumnOvenMethodType@AdvionLCObjects@@QEBA_NXZ
    1912 0x10dc70  ?isset_enableMultiple@c_BackgroundOptions@AdvionObjects@@QEBA_NXZ
    1913 0x130a20  ?isset_endIndex@c_IntegrationBaseline@AdvionObjects@@QEBA_NXZ
    1914 0x10dcb0  ?isset_endMass@c_BasePeakChromGraphInfo@AdvionObjects@@QEBA_NXZ
    1915 0x10dcf0  ?isset_endMass@c_XICChromGraphInfo@AdvionObjects@@QEBA_NXZ
    1916 0x10dd30  ?isset_endRetentionTime@c_SpectrumGraphInfo@AdvionObjects@@QEBA_NXZ
    1917 0x10dd70  ?isset_endTime@c_BackgroundSpectrum@AdvionObjects@@QEBA_NXZ
    1918 0x10ddb0  ?isset_endX@c_GraphInfo@AdvionObjects@@QEBA_NXZ
    1919  0x55dc0  ?isset_equilibrationTime@c_GradientPumpType@AdvionLCObjects@@QEBA_NXZ
    1920 0x10ddf0  ?isset_estimateWidth@c_GlobalPeakDetection@AdvionObjects@@QEBA_NXZ
    1921 0x10de30  ?isset_excludeNoise@c_GlobalPeakDetection@AdvionObjects@@QEBA_NXZ
    1922  0x55e00  ?isset_hasUVLamp@c_uvDetectorDeviceInfo@AdvionLCObjects@@QEBA_NXZ
    1923  0x55e40  ?isset_hasVisibleLamp@c_uvDetectorDeviceInfo@AdvionLCObjects@@QEBA_NXZ
    1924 0x130a60  ?isset_heightAboveBaseline@c_Peak@AdvionObjects@@QEBA_NXZ
    1925 0x10de70  ?isset_id@c_AnalyteSettings@AdvionObjects@@QEBA_NXZ
    1926 0x10deb0  ?isset_id@c_CalibrationStandard@AdvionObjects@@QEBA_NXZ
    1927 0x10def0  ?isset_id@c_QuantScanMode@AdvionObjects@@QEBA_NXZ
    1928 0x10df30  ?isset_index@c_ScalarChannelChromGraphInfo@AdvionObjects@@QEBA_NXZ
    1929 0x10df70  ?isset_instrumentType@c_QuantitationType@AdvionObjects@@QEBA_NXZ
    1930 0x10dfb0  ?isset_intensityMetric@c_Analyte@AdvionObjects@@QEBA_NXZ
    1931 0x10dff0  ?isset_internalStandardId@c_AnalyteSettings@AdvionObjects@@QEBA_NXZ
    1932 0x10e030  ?isset_isFullRetentionTime@c_ParentChromGraphInfo@AdvionObjects@@QEBA_NXZ
    1933 0x10e070  ?isset_isFullRetentionTime@c_SpectrumGraphInfo@AdvionObjects@@QEBA_NXZ
    1934 0x10e0b0  ?isset_isStacked@c_GraphInfo@AdvionObjects@@QEBA_NXZ
    1935 0x10e0f0  ?isset_isStick@c_SpectrumGraphInfo@AdvionObjects@@QEBA_NXZ
    1936 0x10e130  ?isset_isotopeDilution@c_QuantitationType@AdvionObjects@@QEBA_NXZ
    1937 0x10e170  ?isset_isotopeRatio@c_QuantitationType@AdvionObjects@@QEBA_NXZ
    1938 0x10e1b0  ?isset_manualHeight@c_IntegrationPoint@AdvionObjects@@QEBA_NXZ
    1939 0x1415a0  ?isset_massCalibration@c_CmsTuneParametersType@AdvionObjects@@QEBA_NXZ
    1940 0x10e1f0  ?isset_massSpan@c_Analyte@AdvionObjects@@QEBA_NXZ
    1941  0x55e80  ?isset_maxBandwidth@c_uvDetectorDeviceInfo@AdvionLCObjects@@QEBA_NXZ
    1942  0x55ec0  ?isset_maxNumChannels@c_uvDetectorDeviceInfo@AdvionLCObjects@@QEBA_NXZ
    1943  0x55f00  ?isset_maxRefBandwidth@c_uvDetectorDeviceInfo@AdvionLCObjects@@QEBA_NXZ
    1944  0x55f40  ?isset_maxWavelength@c_uvDetectorDeviceInfo@AdvionLCObjects@@QEBA_NXZ
    1945 0x10e230  ?isset_maxWidth@c_GlobalPeakDetection@AdvionObjects@@QEBA_NXZ
    1946 0x130aa0  ?isset_maximumIndex@c_Peak@AdvionObjects@@QEBA_NXZ
    1947  0x55f80  ?isset_minBandwidth@c_uvDetectorDeviceInfo@AdvionLCObjects@@QEBA_NXZ
    1948  0x55fc0  ?isset_minWavelength@c_uvDetectorDeviceInfo@AdvionLCObjects@@QEBA_NXZ
    1949 0x10e270  ?isset_name@c_Analyte@AdvionObjects@@QEBA_NXZ
    1950  0x56000  ?isset_needleHeight@c_AvantSamplerInjection@AdvionLCObjects@@QEBA_NXZ
    1951 0x10e2b0  ?isset_numPeakLabels@c_GlobalPeakDetection@AdvionObjects@@QEBA_NXZ
    1952 0x10e2f0  ?isset_parentChromInfo@c_processMethod@AdvionObjects@@QEBA_NXZ
    1953 0x10e330  ?isset_parentSpectrumInfo@c_processMethod@AdvionObjects@@QEBA_NXZ
    1954 0x10e370  ?isset_peakDetection@c_AnalyteSettings@AdvionObjects@@QEBA_NXZ
    1955  0x56040  ?isset_pump@c_AdvionLCMethodType@AdvionLCObjects@@QEBA_NXZ
    1956  0x56080  ?isset_pumpASolvent@c_GradientPumpType@AdvionLCObjects@@QEBA_NXZ
    1957  0x560c0  ?isset_pumpBSolvent@c_GradientPumpType@AdvionLCObjects@@QEBA_NXZ
    1958 0x10e3b0  ?isset_qcOnly@c_QuantitationType@AdvionObjects@@QEBA_NXZ
    1959 0x10e3f0  ?isset_quantitation@c_MethodType@AdvionObjects@@QEBA_NXZ
    1960 0x10e430  ?isset_quantitation@c_QuantitationType@AdvionObjects@@QEBA_NXZ
    1961  0x56100  ?isset_rangeScanMode@c_AdvionUVMethodType@AdvionLCObjects@@QEBA_NXZ
    1962  0x56140  ?isset_refBandwidth@c_UVChannel@AdvionLCObjects@@QEBA_NXZ
    1963  0x56180  ?isset_refBandwidth@c_UVRangeScanMode@AdvionLCObjects@@QEBA_NXZ
    1964  0x561c0  ?isset_refEnabled@c_UVChannel@AdvionLCObjects@@QEBA_NXZ
    1965  0x56200  ?isset_refEnabled@c_UVRangeScanMode@AdvionLCObjects@@QEBA_NXZ
    1966  0x56240  ?isset_refWavelength@c_UVChannel@AdvionLCObjects@@QEBA_NXZ
    1967  0x56280  ?isset_refWavelength@c_UVRangeScanMode@AdvionLCObjects@@QEBA_NXZ
    1968 0x10e470  ?isset_referenceAnalyteId@c_AnalyteSettings@AdvionObjects@@QEBA_NXZ
    1969 0x10e4b0  ?isset_removeFromChromatograms@c_BackgroundOptions@AdvionObjects@@QEBA_NXZ
    1970 0x10e4f0  ?isset_removeFromSpectra@c_BackgroundOptions@AdvionObjects@@QEBA_NXZ
    1971 0x10e530  ?isset_removeNoise@c_MethodType@AdvionObjects@@QEBA_NXZ
    1972 0x10e570  ?isset_retentionTime@c_Analyte@AdvionObjects@@QEBA_NXZ
    1973 0x10e5b0  ?isset_retentionTimeSpan@c_Analyte@AdvionObjects@@QEBA_NXZ
    1974 0x10e5f0  ?isset_runTime@c_MethodType@AdvionObjects@@QEBA_NXZ
    1975 0x10e630  ?isset_sampleListFileIndex@c_AnalyteSettings@AdvionObjects@@QEBA_NXZ
    1976  0x562c0  ?isset_sampler@c_AdvionLCMethodType@AdvionLCObjects@@QEBA_NXZ
    1977 0x10e670  ?isset_scanModeId@c_AnalyteSettings@AdvionObjects@@QEBA_NXZ
    1978 0x10e6b0  ?isset_scanModeIndex@c_AnalogOutput@AdvionObjects@@QEBA_NXZ
    1979 0x10e6f0  ?isset_scanModeIndex@c_PeakTrigger@AdvionObjects@@QEBA_NXZ
    1980 0x10e730  ?isset_semiQuantSettings@c_QuantitationType@AdvionObjects@@QEBA_NXZ
    1981 0x10e770  ?isset_sigma@c_GlobalPeakDetection@AdvionObjects@@QEBA_NXZ
    1982 0x10e7b0  ?isset_smoothing@c_AnalogOutput@AdvionObjects@@QEBA_NXZ
    1983 0x10e7f0  ?isset_smoothing@c_MethodType@AdvionObjects@@QEBA_NXZ
    1984  0x56300  ?isset_solventADescription@c_GradientPumpType@AdvionLCObjects@@QEBA_NXZ
    1985  0x56340  ?isset_solventBDescription@c_GradientPumpType@AdvionLCObjects@@QEBA_NXZ
    1986 0x10e830  ?isset_source@c_AnalogOutput@AdvionObjects@@QEBA_NXZ
    1987 0x10e870  ?isset_source@c_PeakTrigger@AdvionObjects@@QEBA_NXZ
    1988  0x696d0  ?isset_sourceVoltage@c_ionSourceOptimization@AdvionObjects@@QEBA_NXZ
    1989  0x69710  ?isset_sourceVoltageDynamic@c_ionSourceOptimization@AdvionObjects@@QEBA_NXZ
    1990 0x10e8b0  ?isset_sourceVoltageOffset@c_MassOfInterest@AdvionObjects@@QEBA_NXZ
    1991 0x10e8f0  ?isset_standardAddition@c_QuantitationType@AdvionObjects@@QEBA_NXZ
    1992 0x130ae0  ?isset_startIndex@c_IntegrationBaseline@AdvionObjects@@QEBA_NXZ
    1993 0x10e930  ?isset_startMass@c_BasePeakChromGraphInfo@AdvionObjects@@QEBA_NXZ
    1994 0x10e970  ?isset_startMass@c_XICChromGraphInfo@AdvionObjects@@QEBA_NXZ
    1995 0x10e9b0  ?isset_startRetentionTime@c_IntegrationPoint@AdvionObjects@@QEBA_NXZ
    1996 0x10e9f0  ?isset_startRetentionTime@c_SpectrumGraphInfo@AdvionObjects@@QEBA_NXZ
    1997 0x10ea30  ?isset_startTime@c_BackgroundSpectrum@AdvionObjects@@QEBA_NXZ
    1998 0x10ea70  ?isset_startTime@c_MassOfInterest@AdvionObjects@@QEBA_NXZ
    1999 0x10eab0  ?isset_startX@c_GraphInfo@AdvionObjects@@QEBA_NXZ
    2000  0x56380  ?isset_stopPumpAtEnd@c_GradientPumpType@AdvionLCObjects@@QEBA_NXZ
    2001 0x10eaf0  ?isset_stopTime@c_MassOfInterest@AdvionObjects@@QEBA_NXZ
    2002  0x563c0  ?isset_supportsMultipleBandwidths@c_uvDetectorDeviceInfo@AdvionLCObjects@@QEBA_NXZ
    2003  0x56400  ?isset_supportsMultipleScanRates@c_uvDetectorDeviceInfo@AdvionLCObjects@@QEBA_NXZ
    2004  0x56440  ?isset_supportsReferenceWavelength@c_uvDetectorDeviceInfo@AdvionLCObjects@@QEBA_NXZ
    2005 0x10eb30  ?isset_targetRetentionTime@c_GlobalPeakDetection@AdvionObjects@@QEBA_NXZ
    2006  0x56480  ?isset_temperatureSetpoint@c_AdvionColumnOvenMethodType@AdvionLCObjects@@QEBA_NXZ
    2007  0x564c0  ?isset_temperatureTolerance@c_AdvionColumnOvenMethodType@AdvionLCObjects@@QEBA_NXZ
    2008 0x10eb70  ?isset_threshold@c_GlobalPeakDetection@AdvionObjects@@QEBA_NXZ
    2009  0x69750  ?isset_transferLineTemperature@c_ApciSource@AdvionObjects@@QEBA_NXZ
    2010  0x56500  ?isset_trayType@c_AvantSamplerInjection@AdvionLCObjects@@QEBA_NXZ
    2011 0x10ebb0  ?isset_type@c_CalibrationStandard@AdvionObjects@@QEBA_NXZ
    2012  0x56540  ?isset_useAirSegment@c_AvantSamplerInjection@AdvionLCObjects@@QEBA_NXZ
    2013 0x10ebf0  ?isset_useDefaultStandards@c_SemiQuantSettings@AdvionObjects@@QEBA_NXZ
    2014  0x56580  ?isset_useHeadspace@c_AvantSamplerInjection@AdvionLCObjects@@QEBA_NXZ
    2015 0x10ec30  ?isset_useTwoIonSourceOptimizations@c_RangeScanMode@AdvionObjects@@QEBA_NXZ
    2016 0x10ec70  ?isset_userModified@c_GlobalPeakDetection@AdvionObjects@@QEBA_NXZ
    2017  0x565c0  ?isset_uvDetector@c_AdvionLCMethodType@AdvionLCObjects@@QEBA_NXZ
    2018  0x56600  ?isset_uvMaxWavelength@c_uvDetectorDeviceInfo@AdvionLCObjects@@QEBA_NXZ
    2019  0x56640  ?isset_valveWash@c_AvantSamplerMethodType@AdvionLCObjects@@QEBA_NXZ
    2020  0x56680  ?isset_version@c_AdvionLCMethod@AdvionLCObjects@@QEBA_NXZ
    2021  0x69790  ?isset_version@c_ionSourceOptimization@AdvionObjects@@QEBA_NXZ
    2022 0x10ecb0  ?isset_version@c_method@AdvionObjects@@QEBA_NXZ
    2023 0x10ecf0  ?isset_version@c_peakDetection@AdvionObjects@@QEBA_NXZ
    2024 0x130b20  ?isset_version@c_peakList@AdvionObjects@@QEBA_NXZ
    2025 0x10ed30  ?isset_version@c_processMethod@AdvionObjects@@QEBA_NXZ
    2026 0x1415e0  ?isset_version@c_tuneParameters@AdvionObjects@@QEBA_NXZ
    2027  0x566c0  ?isset_version@c_uvDetectorDeviceInfo@AdvionLCObjects@@QEBA_NXZ
    2028  0x56700  ?isset_visMinWavelength@c_uvDetectorDeviceInfo@AdvionLCObjects@@QEBA_NXZ
    2029 0x10ed70  ?isset_width@c_BoxFilter@AdvionObjects@@QEBA_NXZ
    2030 0x130b60  ?isset_widthUsed@c_peakList@AdvionObjects@@QEBA_NXZ
    2031  0x766e0  ?marshal@c_AdditionalInfo@AdvionObjects@@QEBA?AW4elmx_error@lmx@@AEAVc_xml_writer@4@PEBD@Z
    2032  0x19ac0  ?marshal@c_AdvionColumnOvenMethodType@AdvionLCObjects@@UEBA?AW4elmx_error@lmx@@AEAVc_xml_writer@4@PEBD@Z
    2033  0x179d0  ?marshal@c_AdvionLCMethod@AdvionLCObjects@@QEBA?AW4elmx_error@lmx@@AEAV?$basic_ostream@DU?$char_traits@D@std@@@std@@PEAUs_debug_error@4@@Z
    2034  0x17b70  ?marshal@c_AdvionLCMethod@AdvionLCObjects@@QEBA?AW4elmx_error@lmx@@AEAVc_xml_writer@4@PEBD@Z
    2035  0x17980  ?marshal@c_AdvionLCMethod@AdvionLCObjects@@QEBA?AW4elmx_error@lmx@@PEAV?$basic_string@DU?$char_traits@D@std@@V?$allocator@D@2@@std@@PEAUs_debug_error@4@@Z
    2036  0x178e0  ?marshal@c_AdvionLCMethod@AdvionLCObjects@@QEBA?AW4elmx_error@lmx@@QEBDPEAUs_debug_error@4@@Z
    2037  0x17930  ?marshal@c_AdvionLCMethod@AdvionLCObjects@@QEBA?AW4elmx_error@lmx@@QEB_WPEAUs_debug_error@4@@Z
    2038  0x16290  ?marshal@c_AdvionLCMethodType@AdvionLCObjects@@QEBA?AW4elmx_error@lmx@@AEAVc_xml_writer@4@PEBD@Z
    2039  0x1d4c0  ?marshal@c_AdvionUVMethodType@AdvionLCObjects@@UEBA?AW4elmx_error@lmx@@AEAVc_xml_writer@4@PEBD@Z
    2040  0x1c500  ?marshal@c_AliasMethodType@AdvionLCObjects@@UEBA?AW4elmx_error@lmx@@AEAVc_xml_writer@4@PEBD@Z
    2041  0x6dd30  ?marshal@c_AnalogInput@AdvionObjects@@QEBA?AW4elmx_error@lmx@@AEAVc_xml_writer@4@PEBD@Z
    2042  0x87290  ?marshal@c_AnalogInputs@AdvionObjects@@QEBA?AW4elmx_error@lmx@@AEAVc_xml_writer@4@PEBD@Z
    2043  0x822a0  ?marshal@c_AnalogOutput@AdvionObjects@@UEBA?AW4elmx_error@lmx@@AEAVc_xml_writer@4@PEBD@Z
    2044  0x806e0  ?marshal@c_AnalogOutputSmoothing@AdvionObjects@@UEBA?AW4elmx_error@lmx@@AEAVc_xml_writer@4@PEBD@Z
    2045  0x97a40  ?marshal@c_AnalogOutputs@AdvionObjects@@QEBA?AW4elmx_error@lmx@@AEAVc_xml_writer@4@PEBD@Z
    2046  0x9b1a0  ?marshal@c_Analyte@AdvionObjects@@QEBA?AW4elmx_error@lmx@@AEAVc_xml_writer@4@PEBD@Z
    2047  0x8bb60  ?marshal@c_AnalyteSettings@AdvionObjects@@QEBA?AW4elmx_error@lmx@@AEAVc_xml_writer@4@PEBD@Z
    2048  0x63060  ?marshal@c_ApciSource@AdvionObjects@@UEBA?AW4elmx_error@lmx@@AEAVc_xml_writer@4@PEBD@Z
    2049  0x11600  ?marshal@c_AvantSamplerCooling@AdvionLCObjects@@QEBA?AW4elmx_error@lmx@@AEAVc_xml_writer@4@PEBD@Z
    2050   0xf370  ?marshal@c_AvantSamplerInjection@AdvionLCObjects@@QEBA?AW4elmx_error@lmx@@AEAVc_xml_writer@4@PEBD@Z
    2051  0x1b7b0  ?marshal@c_AvantSamplerMethodType@AdvionLCObjects@@UEBA?AW4elmx_error@lmx@@AEAVc_xml_writer@4@PEBD@Z
    2052  0x12110  ?marshal@c_AvantSamplerValveWash@AdvionLCObjects@@QEBA?AW4elmx_error@lmx@@AEAVc_xml_writer@4@PEBD@Z
    2053  0x109a0  ?marshal@c_AvantSamplerWashLine@AdvionLCObjects@@QEBA?AW4elmx_error@lmx@@AEAVc_xml_writer@4@PEBD@Z
    2054  0x8f8b0  ?marshal@c_BackgroundOptions@AdvionObjects@@QEBA?AW4elmx_error@lmx@@AEAVc_xml_writer@4@PEBD@Z
    2055  0x7b960  ?marshal@c_BackgroundSpectrum@AdvionObjects@@QEBA?AW4elmx_error@lmx@@AEAVc_xml_writer@4@PEBD@Z
    2056  0x92f10  ?marshal@c_BackgroundSpectrumGraphInfo@AdvionObjects@@UEBA?AW4elmx_error@lmx@@AEAVc_xml_writer@4@PEBD@Z
    2057  0x962d0  ?marshal@c_BasePeakChromGraphInfo@AdvionObjects@@UEBA?AW4elmx_error@lmx@@AEAVc_xml_writer@4@PEBD@Z
    2058  0x7f1a0  ?marshal@c_BaselineRemoval@AdvionObjects@@UEBA?AW4elmx_error@lmx@@AEAVc_xml_writer@4@PEBD@Z
    2059  0x7c9a0  ?marshal@c_BoxFilter@AdvionObjects@@UEBA?AW4elmx_error@lmx@@AEAVc_xml_writer@4@PEBD@Z
    2060  0x77df0  ?marshal@c_CalibrationAnalyte@AdvionObjects@@QEBA?AW4elmx_error@lmx@@AEAVc_xml_writer@4@PEBD@Z
    2061  0x89a10  ?marshal@c_CalibrationStandard@AdvionObjects@@QEBA?AW4elmx_error@lmx@@AEAVc_xml_writer@4@PEBD@Z
    2062  0x93a30  ?marshal@c_ChromGraphInfo@AdvionObjects@@UEBA?AW4elmx_error@lmx@@AEAVc_xml_writer@4@PEBD@Z
    2063  0x6ec40  ?marshal@c_ClosureOutTrigger@AdvionObjects@@UEBA?AW4elmx_error@lmx@@AEAVc_xml_writer@4@PEBD@Z
    2064   0xda10  ?marshal@c_ClosureTriggerIn@AdvionLCObjects@@QEBA?AW4elmx_error@lmx@@AEAVc_xml_writer@4@PEBD@Z
    2065  0x772d0  ?marshal@c_ClosureTriggerIn@AdvionObjects@@QEBA?AW4elmx_error@lmx@@AEAVc_xml_writer@4@PEBD@Z
    2066 0x135b10  ?marshal@c_CmsTuneParametersType@AdvionObjects@@QEBA?AW4elmx_error@lmx@@AEAVc_xml_writer@4@PEBD@Z
    2067   0x6ea0  ?marshal@c_ColumnOvenMethod@AdvionLCObjects@@UEBA?AW4elmx_error@lmx@@AEAVc_xml_writer@4@PEBD@Z
    2068  0x1a9e0  ?marshal@c_ContactClosureIn@AdvionLCObjects@@QEBA?AW4elmx_error@lmx@@AEAVc_xml_writer@4@PEBD@Z
    2069  0x88cb0  ?marshal@c_ContactClosureIn@AdvionObjects@@QEBA?AW4elmx_error@lmx@@AEAVc_xml_writer@4@PEBD@Z
    2070  0x87e00  ?marshal@c_ContactClosureOut@AdvionObjects@@QEBA?AW4elmx_error@lmx@@AEAVc_xml_writer@4@PEBD@Z
    2071  0x98750  ?marshal@c_ContactClosuresOut@AdvionObjects@@QEBA?AW4elmx_error@lmx@@AEAVc_xml_writer@4@PEBD@Z
    2072  0x64870  ?marshal@c_DartSource@AdvionObjects@@UEBA?AW4elmx_error@lmx@@AEAVc_xml_writer@4@PEBD@Z
    2073  0x6af50  ?marshal@c_DeltaBackgroundParameters@AdvionObjects@@QEBA?AW4elmx_error@lmx@@AEAVc_xml_writer@4@PEBD@Z
    2074  0x85e60  ?marshal@c_DeltaICAnalogOutput@AdvionObjects@@UEBA?AW4elmx_error@lmx@@AEAVc_xml_writer@4@PEBD@Z
    2075  0x75430  ?marshal@c_DeltaICPeakTrigger@AdvionObjects@@UEBA?AW4elmx_error@lmx@@AEAVc_xml_writer@4@PEBD@Z
    2076  0x86740  ?marshal@c_DeltaXICAnalogOutput@AdvionObjects@@UEBA?AW4elmx_error@lmx@@AEAVc_xml_writer@4@PEBD@Z
    2077  0x75d10  ?marshal@c_DeltaXICPeakTrigger@AdvionObjects@@UEBA?AW4elmx_error@lmx@@AEAVc_xml_writer@4@PEBD@Z
    2078   0xc150  ?marshal@c_DiverterValveMethod@AdvionLCObjects@@QEBA?AW4elmx_error@lmx@@AEAVc_xml_writer@4@PEBD@Z
    2079  0x63d70  ?marshal@c_EsiSource@AdvionObjects@@UEBA?AW4elmx_error@lmx@@AEAVc_xml_writer@4@PEBD@Z
    2080  0x83fa0  ?marshal@c_ExtractedAnalogOutput@AdvionObjects@@UEBA?AW4elmx_error@lmx@@AEAVc_xml_writer@4@PEBD@Z
    2081  0x73570  ?marshal@c_ExtractedPeakTrigger@AdvionObjects@@UEBA?AW4elmx_error@lmx@@AEAVc_xml_writer@4@PEBD@Z
    2082  0x7c1a0  ?marshal@c_Filter@AdvionObjects@@UEBA?AW4elmx_error@lmx@@AEAVc_xml_writer@4@PEBD@Z
    2083  0x8e780  ?marshal@c_GlobalPeakDetection@AdvionObjects@@UEBA?AW4elmx_error@lmx@@AEAVc_xml_writer@4@PEBD@Z
    2084   0xcd20  ?marshal@c_GradientMethod@AdvionLCObjects@@QEBA?AW4elmx_error@lmx@@AEAVc_xml_writer@4@PEBD@Z
    2085  0x1f380  ?marshal@c_GradientPumpType@AdvionLCObjects@@UEBA?AW4elmx_error@lmx@@AEAVc_xml_writer@4@PEBD@Z
    2086  0x90b00  ?marshal@c_GraphInfo@AdvionObjects@@UEBA?AW4elmx_error@lmx@@AEAVc_xml_writer@4@PEBD@Z
    2087 0x126cc0  ?marshal@c_IntegrationBaseline@AdvionObjects@@QEBA?AW4elmx_error@lmx@@AEAVc_xml_writer@4@PEBD@Z
    2088  0x7ade0  ?marshal@c_IntegrationPoint@AdvionObjects@@QEBA?AW4elmx_error@lmx@@AEAVc_xml_writer@4@PEBD@Z
    2089  0x626b0  ?marshal@c_IonSource@AdvionObjects@@UEBA?AW4elmx_error@lmx@@AEAVc_xml_writer@4@PEBD@Z
    2090  0x6c160  ?marshal@c_MassOfInterest@AdvionObjects@@QEBA?AW4elmx_error@lmx@@AEAVc_xml_writer@4@PEBD@Z
    2091  0xa1200  ?marshal@c_MethodType@AdvionObjects@@QEBA?AW4elmx_error@lmx@@AEAVc_xml_writer@4@PEBD@Z
    2092  0x94390  ?marshal@c_ParentChromGraphInfo@AdvionObjects@@UEBA?AW4elmx_error@lmx@@AEAVc_xml_writer@4@PEBD@Z
    2093 0x127d80  ?marshal@c_Peak@AdvionObjects@@QEBA?AW4elmx_error@lmx@@AEAVc_xml_writer@4@PEBD@Z
    2094  0x7a140  ?marshal@c_PeakDetectionType@AdvionObjects@@UEBA?AW4elmx_error@lmx@@AEAVc_xml_writer@4@PEBD@Z
    2095  0x71910  ?marshal@c_PeakTrigger@AdvionObjects@@UEBA?AW4elmx_error@lmx@@AEAVc_xml_writer@4@PEBD@Z
    2096   0x6160  ?marshal@c_PumpMethod@AdvionLCObjects@@UEBA?AW4elmx_error@lmx@@AEAVc_xml_writer@4@PEBD@Z
    2097  0x79750  ?marshal@c_QuantScanMode@AdvionObjects@@QEBA?AW4elmx_error@lmx@@AEAVc_xml_writer@4@PEBD@Z
    2098  0x9f360  ?marshal@c_QuantitationType@AdvionObjects@@QEBA?AW4elmx_error@lmx@@AEAVc_xml_writer@4@PEBD@Z
    2099  0x7d830  ?marshal@c_RangeScanMode@AdvionObjects@@UEBA?AW4elmx_error@lmx@@AEAVc_xml_writer@4@PEBD@Z
    2100  0x70230  ?marshal@c_RepeatTimeTrigger@AdvionObjects@@UEBA?AW4elmx_error@lmx@@AEAVc_xml_writer@4@PEBD@Z
    2101  0x85470  ?marshal@c_SIMAnalogOutput@AdvionObjects@@UEBA?AW4elmx_error@lmx@@AEAVc_xml_writer@4@PEBD@Z
    2102  0x74a40  ?marshal@c_SIMPeakTrigger@AdvionObjects@@UEBA?AW4elmx_error@lmx@@AEAVc_xml_writer@4@PEBD@Z
    2103  0x7e700  ?marshal@c_SIMScanMode@AdvionObjects@@UEBA?AW4elmx_error@lmx@@AEAVc_xml_writer@4@PEBD@Z
    2104   0x6830  ?marshal@c_SamplerMethod@AdvionLCObjects@@UEBA?AW4elmx_error@lmx@@AEAVc_xml_writer@4@PEBD@Z
    2105  0x96e20  ?marshal@c_ScalarChannelChromGraphInfo@AdvionObjects@@UEBA?AW4elmx_error@lmx@@AEAVc_xml_writer@4@PEBD@Z
    2106  0x6a3b0  ?marshal@c_ScanMode@AdvionObjects@@UEBA?AW4elmx_error@lmx@@AEAVc_xml_writer@4@PEBD@Z
    2107  0x789a0  ?marshal@c_SemiQuantIsotope@AdvionObjects@@QEBA?AW4elmx_error@lmx@@AEAVc_xml_writer@4@PEBD@Z
    2108  0x99260  ?marshal@c_SemiQuantSettings@AdvionObjects@@QEBA?AW4elmx_error@lmx@@AEAVc_xml_writer@4@PEBD@Z
    2109  0x8a670  ?marshal@c_SemiQuantStandard@AdvionObjects@@QEBA?AW4elmx_error@lmx@@AEAVc_xml_writer@4@PEBD@Z
    2110  0x6cfd0  ?marshal@c_Smoothing@AdvionObjects@@QEBA?AW4elmx_error@lmx@@AEAVc_xml_writer@4@PEBD@Z
    2111  0x92360  ?marshal@c_SpectrumGraphInfo@AdvionObjects@@UEBA?AW4elmx_error@lmx@@AEAVc_xml_writer@4@PEBD@Z
    2112  0x83450  ?marshal@c_TICAnalogOutput@AdvionObjects@@UEBA?AW4elmx_error@lmx@@AEAVc_xml_writer@4@PEBD@Z
    2113  0x94d10  ?marshal@c_TICChromGraphInfo@AdvionObjects@@UEBA?AW4elmx_error@lmx@@AEAVc_xml_writer@4@PEBD@Z
    2114  0x72a20  ?marshal@c_TICPeakTrigger@AdvionObjects@@UEBA?AW4elmx_error@lmx@@AEAVc_xml_writer@4@PEBD@Z
    2115  0x7fb80  ?marshal@c_TimeBaselineRemoval@AdvionObjects@@UEBA?AW4elmx_error@lmx@@AEAVc_xml_writer@4@PEBD@Z
    2116  0x6f5b0  ?marshal@c_TimeTrigger@AdvionObjects@@UEBA?AW4elmx_error@lmx@@AEAVc_xml_writer@4@PEBD@Z
    2117  0x81010  ?marshal@c_TriangleAnalogOutputSmoothing@AdvionObjects@@UEBA?AW4elmx_error@lmx@@AEAVc_xml_writer@4@PEBD@Z
    2118   0xa7b0  ?marshal@c_UVAnalogOutput@AdvionLCObjects@@UEBA?AW4elmx_error@lmx@@AEAVc_xml_writer@4@PEBD@Z
    2119   0x9aa0  ?marshal@c_UVChannel@AdvionLCObjects@@QEBA?AW4elmx_error@lmx@@AEAVc_xml_writer@4@PEBD@Z
    2120   0xb260  ?marshal@c_UVChannelAnalogOutput@AdvionLCObjects@@UEBA?AW4elmx_error@lmx@@AEAVc_xml_writer@4@PEBD@Z
    2121  0x189e0  ?marshal@c_UVChannelScanMode@AdvionLCObjects@@UEBA?AW4elmx_error@lmx@@AEAVc_xml_writer@4@PEBD@Z
    2122   0x7510  ?marshal@c_UVDetectorMethod@AdvionLCObjects@@UEBA?AW4elmx_error@lmx@@AEAVc_xml_writer@4@PEBD@Z
    2123   0x89d0  ?marshal@c_UVRangeScanMode@AdvionLCObjects@@UEBA?AW4elmx_error@lmx@@AEAVc_xml_writer@4@PEBD@Z
    2124   0x7d60  ?marshal@c_UVScanMode@AdvionLCObjects@@UEBA?AW4elmx_error@lmx@@AEAVc_xml_writer@4@PEBD@Z
    2125  0x84a80  ?marshal@c_XICAnalogOutput@AdvionObjects@@UEBA?AW4elmx_error@lmx@@AEAVc_xml_writer@4@PEBD@Z
    2126  0x95720  ?marshal@c_XICChromGraphInfo@AdvionObjects@@UEBA?AW4elmx_error@lmx@@AEAVc_xml_writer@4@PEBD@Z
    2127  0x74050  ?marshal@c_XICPeakTrigger@AdvionObjects@@UEBA?AW4elmx_error@lmx@@AEAVc_xml_writer@4@PEBD@Z
    2128  0x99e70  ?marshal@c_additionalMasses@c_Analyte@AdvionObjects@@QEBA?AW4elmx_error@lmx@@AEAVc_xml_writer@5@PEBD@Z
    2129 0x133150  ?marshal@c_calibration@AdvionObjects@@QEBA?AW4elmx_error@lmx@@AEAVc_xml_writer@4@PEBD@Z
    2130 0x1325b0  ?marshal@c_calibrationSegment@AdvionObjects@@QEBA?AW4elmx_error@lmx@@AEAVc_xml_writer@4@PEBD@Z
    2131  0x65fe0  ?marshal@c_ionSourceOptimization@AdvionObjects@@QEBA?AW4elmx_error@lmx@@AEAV?$basic_ostream@DU?$char_traits@D@std@@@std@@PEAUs_debug_error@4@@Z
    2132  0x66180  ?marshal@c_ionSourceOptimization@AdvionObjects@@QEBA?AW4elmx_error@lmx@@AEAVc_xml_writer@4@PEBD@Z
    2133  0x65f90  ?marshal@c_ionSourceOptimization@AdvionObjects@@QEBA?AW4elmx_error@lmx@@PEAV?$basic_string@DU?$char_traits@D@std@@V?$allocator@D@2@@std@@PEAUs_debug_error@4@@Z
    2134  0x65ef0  ?marshal@c_ionSourceOptimization@AdvionObjects@@QEBA?AW4elmx_error@lmx@@QEBDPEAUs_debug_error@4@@Z
    2135  0x65f40  ?marshal@c_ionSourceOptimization@AdvionObjects@@QEBA?AW4elmx_error@lmx@@QEB_WPEAUs_debug_error@4@@Z
    2136 0x1347d0  ?marshal@c_massCalibration@AdvionObjects@@QEBA?AW4elmx_error@lmx@@AEAVc_xml_writer@4@PEBD@Z
    2137  0xa2f90  ?marshal@c_method@AdvionObjects@@QEBA?AW4elmx_error@lmx@@AEAV?$basic_ostream@DU?$char_traits@D@std@@@std@@PEAUs_debug_error@4@@Z
    2138  0xa3130  ?marshal@c_method@AdvionObjects@@QEBA?AW4elmx_error@lmx@@AEAVc_xml_writer@4@PEBD@Z
    2139  0xa2f40  ?marshal@c_method@AdvionObjects@@QEBA?AW4elmx_error@lmx@@PEAV?$basic_string@DU?$char_traits@D@std@@V?$allocator@D@2@@std@@PEAUs_debug_error@4@@Z
    2140  0xa2ea0  ?marshal@c_method@AdvionObjects@@QEBA?AW4elmx_error@lmx@@QEBDPEAUs_debug_error@4@@Z
    2141  0xa2ef0  ?marshal@c_method@AdvionObjects@@QEBA?AW4elmx_error@lmx@@QEB_WPEAUs_debug_error@4@@Z
    2142  0x8d300  ?marshal@c_peakDetection@AdvionObjects@@QEBA?AW4elmx_error@lmx@@AEAV?$basic_ostream@DU?$char_traits@D@std@@@std@@PEAUs_debug_error@4@@Z
    2143  0x8d4a0  ?marshal@c_peakDetection@AdvionObjects@@QEBA?AW4elmx_error@lmx@@AEAVc_xml_writer@4@PEBD@Z
    2144  0x8d2b0  ?marshal@c_peakDetection@AdvionObjects@@QEBA?AW4elmx_error@lmx@@PEAV?$basic_string@DU?$char_traits@D@std@@V?$allocator@D@2@@std@@PEAUs_debug_error@4@@Z
    2145  0x8d210  ?marshal@c_peakDetection@AdvionObjects@@QEBA?AW4elmx_error@lmx@@QEBDPEAUs_debug_error@4@@Z
    2146  0x8d260  ?marshal@c_peakDetection@AdvionObjects@@QEBA?AW4elmx_error@lmx@@QEB_WPEAUs_debug_error@4@@Z
    2147 0x1295b0  ?marshal@c_peakList@AdvionObjects@@QEBA?AW4elmx_error@lmx@@AEAV?$basic_ostream@DU?$char_traits@D@std@@@std@@PEAUs_debug_error@4@@Z
    2148 0x129750  ?marshal@c_peakList@AdvionObjects@@QEBA?AW4elmx_error@lmx@@AEAVc_xml_writer@4@PEBD@Z
    2149 0x129560  ?marshal@c_peakList@AdvionObjects@@QEBA?AW4elmx_error@lmx@@PEAV?$basic_string@DU?$char_traits@D@std@@V?$allocator@D@2@@std@@PEAUs_debug_error@4@@Z
    2150 0x1294c0  ?marshal@c_peakList@AdvionObjects@@QEBA?AW4elmx_error@lmx@@QEBDPEAUs_debug_error@4@@Z
    2151 0x129510  ?marshal@c_peakList@AdvionObjects@@QEBA?AW4elmx_error@lmx@@QEB_WPEAUs_debug_error@4@@Z
    2152  0x9ce60  ?marshal@c_processMethod@AdvionObjects@@QEBA?AW4elmx_error@lmx@@AEAV?$basic_ostream@DU?$char_traits@D@std@@@std@@PEAUs_debug_error@4@@Z
    2153  0x9d000  ?marshal@c_processMethod@AdvionObjects@@QEBA?AW4elmx_error@lmx@@AEAVc_xml_writer@4@PEBD@Z
    2154  0x9ce10  ?marshal@c_processMethod@AdvionObjects@@QEBA?AW4elmx_error@lmx@@PEAV?$basic_string@DU?$char_traits@D@std@@V?$allocator@D@2@@std@@PEAUs_debug_error@4@@Z
    2155  0x9cd70  ?marshal@c_processMethod@AdvionObjects@@QEBA?AW4elmx_error@lmx@@QEBDPEAUs_debug_error@4@@Z
    2156  0x9cdc0  ?marshal@c_processMethod@AdvionObjects@@QEBA?AW4elmx_error@lmx@@QEB_WPEAUs_debug_error@4@@Z
    2157 0x133c00  ?marshal@c_speedCalibration@AdvionObjects@@QEBA?AW4elmx_error@lmx@@AEAVc_xml_writer@4@PEBD@Z
    2158 0x137300  ?marshal@c_tuneParameters@AdvionObjects@@QEBA?AW4elmx_error@lmx@@AEAV?$basic_ostream@DU?$char_traits@D@std@@@std@@PEAUs_debug_error@4@@Z
    2159 0x1374a0  ?marshal@c_tuneParameters@AdvionObjects@@QEBA?AW4elmx_error@lmx@@AEAVc_xml_writer@4@PEBD@Z
    2160 0x1372b0  ?marshal@c_tuneParameters@AdvionObjects@@QEBA?AW4elmx_error@lmx@@PEAV?$basic_string@DU?$char_traits@D@std@@V?$allocator@D@2@@std@@PEAUs_debug_error@4@@Z
    2161 0x137210  ?marshal@c_tuneParameters@AdvionObjects@@QEBA?AW4elmx_error@lmx@@QEBDPEAUs_debug_error@4@@Z
    2162 0x137260  ?marshal@c_tuneParameters@AdvionObjects@@QEBA?AW4elmx_error@lmx@@QEB_WPEAUs_debug_error@4@@Z
    2163  0x14650  ?marshal@c_uvDetectorDeviceInfo@AdvionLCObjects@@QEBA?AW4elmx_error@lmx@@AEAV?$basic_ostream@DU?$char_traits@D@std@@@std@@PEAUs_debug_error@4@@Z
    2164  0x147f0  ?marshal@c_uvDetectorDeviceInfo@AdvionLCObjects@@QEBA?AW4elmx_error@lmx@@AEAVc_xml_writer@4@PEBD@Z
    2165  0x14600  ?marshal@c_uvDetectorDeviceInfo@AdvionLCObjects@@QEBA?AW4elmx_error@lmx@@PEAV?$basic_string@DU?$char_traits@D@std@@V?$allocator@D@2@@std@@PEAUs_debug_error@4@@Z
    2166  0x14560  ?marshal@c_uvDetectorDeviceInfo@AdvionLCObjects@@QEBA?AW4elmx_error@lmx@@QEBDPEAUs_debug_error@4@@Z
    2167  0x145b0  ?marshal@c_uvDetectorDeviceInfo@AdvionLCObjects@@QEBA?AW4elmx_error@lmx@@QEB_WPEAUs_debug_error@4@@Z
    2168 0x10edb0  ?marshal_attributes@c_AdditionalInfo@AdvionObjects@@IEBAXAEAVc_xml_writer@lmx@@@Z
    2169  0x19df0  ?marshal_attributes@c_AdvionColumnOvenMethodType@AdvionLCObjects@@IEBAXAEAVc_xml_writer@lmx@@@Z
    2170  0x18030  ?marshal_attributes@c_AdvionLCMethod@AdvionLCObjects@@IEBAXAEAVc_xml_writer@lmx@@@Z
    2171  0x567e0  ?marshal_attributes@c_AdvionLCMethodType@AdvionLCObjects@@IEBAXAEAVc_xml_writer@lmx@@@Z
    2172  0x1d7d0  ?marshal_attributes@c_AdvionUVMethodType@AdvionLCObjects@@IEBAXAEAVc_xml_writer@lmx@@@Z
    2173  0x1c810  ?marshal_attributes@c_AliasMethodType@AdvionLCObjects@@IEBAXAEAVc_xml_writer@lmx@@@Z
    2174 0x10edc0  ?marshal_attributes@c_AnalogInput@AdvionObjects@@IEBAXAEAVc_xml_writer@lmx@@@Z
    2175 0x10edd0  ?marshal_attributes@c_AnalogInputs@AdvionObjects@@IEBAXAEAVc_xml_writer@lmx@@@Z
    2176 0x10ede0  ?marshal_attributes@c_AnalogOutput@AdvionObjects@@IEBAXAEAVc_xml_writer@lmx@@@Z
    2177 0x10edf0  ?marshal_attributes@c_AnalogOutputSmoothing@AdvionObjects@@IEBAXAEAVc_xml_writer@lmx@@@Z
    2178 0x10ee00  ?marshal_attributes@c_AnalogOutputs@AdvionObjects@@IEBAXAEAVc_xml_writer@lmx@@@Z
    2179  0x9b480  ?marshal_attributes@c_Analyte@AdvionObjects@@IEBAXAEAVc_xml_writer@lmx@@@Z
    2180  0x8be40  ?marshal_attributes@c_AnalyteSettings@AdvionObjects@@IEBAXAEAVc_xml_writer@lmx@@@Z
    2181  0x63360  ?marshal_attributes@c_ApciSource@AdvionObjects@@IEBAXAEAVc_xml_writer@lmx@@@Z
    2182  0x567f0  ?marshal_attributes@c_AvantSamplerCooling@AdvionLCObjects@@IEBAXAEAVc_xml_writer@lmx@@@Z
    2183  0x56800  ?marshal_attributes@c_AvantSamplerInjection@AdvionLCObjects@@IEBAXAEAVc_xml_writer@lmx@@@Z
    2184  0x1bac0  ?marshal_attributes@c_AvantSamplerMethodType@AdvionLCObjects@@IEBAXAEAVc_xml_writer@lmx@@@Z
    2185  0x56810  ?marshal_attributes@c_AvantSamplerValveWash@AdvionLCObjects@@IEBAXAEAVc_xml_writer@lmx@@@Z
    2186  0x56820  ?marshal_attributes@c_AvantSamplerWashLine@AdvionLCObjects@@IEBAXAEAVc_xml_writer@lmx@@@Z
    2187 0x10ee10  ?marshal_attributes@c_BackgroundOptions@AdvionObjects@@IEBAXAEAVc_xml_writer@lmx@@@Z
    2188 0x10ee20  ?marshal_attributes@c_BackgroundSpectrum@AdvionObjects@@IEBAXAEAVc_xml_writer@lmx@@@Z
    2189  0x93230  ?marshal_attributes@c_BackgroundSpectrumGraphInfo@AdvionObjects@@IEBAXAEAVc_xml_writer@lmx@@@Z
    2190  0x965f0  ?marshal_attributes@c_BasePeakChromGraphInfo@AdvionObjects@@IEBAXAEAVc_xml_writer@lmx@@@Z
    2191 0x10ee30  ?marshal_attributes@c_BaselineRemoval@AdvionObjects@@IEBAXAEAVc_xml_writer@lmx@@@Z
    2192  0x7ccb0  ?marshal_attributes@c_BoxFilter@AdvionObjects@@IEBAXAEAVc_xml_writer@lmx@@@Z
    2193  0x780e0  ?marshal_attributes@c_CalibrationAnalyte@AdvionObjects@@IEBAXAEAVc_xml_writer@lmx@@@Z
    2194  0x89d00  ?marshal_attributes@c_CalibrationStandard@AdvionObjects@@IEBAXAEAVc_xml_writer@lmx@@@Z
    2195  0x93d50  ?marshal_attributes@c_ChromGraphInfo@AdvionObjects@@IEBAXAEAVc_xml_writer@lmx@@@Z
    2196 0x10ee40  ?marshal_attributes@c_ClosureOutTrigger@AdvionObjects@@IEBAXAEAVc_xml_writer@lmx@@@Z
    2197  0x56830  ?marshal_attributes@c_ClosureTriggerIn@AdvionLCObjects@@IEBAXAEAVc_xml_writer@lmx@@@Z
    2198 0x10ee50  ?marshal_attributes@c_ClosureTriggerIn@AdvionObjects@@IEBAXAEAVc_xml_writer@lmx@@@Z
    2199 0x141620  ?marshal_attributes@c_CmsTuneParametersType@AdvionObjects@@IEBAXAEAVc_xml_writer@lmx@@@Z
    2200  0x56840  ?marshal_attributes@c_ColumnOvenMethod@AdvionLCObjects@@IEBAXAEAVc_xml_writer@lmx@@@Z
    2201  0x56850  ?marshal_attributes@c_ContactClosureIn@AdvionLCObjects@@IEBAXAEAVc_xml_writer@lmx@@@Z
    2202 0x10ee60  ?marshal_attributes@c_ContactClosureIn@AdvionObjects@@IEBAXAEAVc_xml_writer@lmx@@@Z
    2203 0x10ee70  ?marshal_attributes@c_ContactClosureOut@AdvionObjects@@IEBAXAEAVc_xml_writer@lmx@@@Z
    2204 0x10ee80  ?marshal_attributes@c_ContactClosuresOut@AdvionObjects@@IEBAXAEAVc_xml_writer@lmx@@@Z
    2205  0x64b70  ?marshal_attributes@c_DartSource@AdvionObjects@@IEBAXAEAVc_xml_writer@lmx@@@Z
    2206 0x10ee90  ?marshal_attributes@c_DeltaBackgroundParameters@AdvionObjects@@IEBAXAEAVc_xml_writer@lmx@@@Z
    2207  0x86190  ?marshal_attributes@c_DeltaICAnalogOutput@AdvionObjects@@IEBAXAEAVc_xml_writer@lmx@@@Z
    2208  0x75760  ?marshal_attributes@c_DeltaICPeakTrigger@AdvionObjects@@IEBAXAEAVc_xml_writer@lmx@@@Z
    2209  0x86a70  ?marshal_attributes@c_DeltaXICAnalogOutput@AdvionObjects@@IEBAXAEAVc_xml_writer@lmx@@@Z
    2210  0x76040  ?marshal_attributes@c_DeltaXICPeakTrigger@AdvionObjects@@IEBAXAEAVc_xml_writer@lmx@@@Z
    2211  0x56860  ?marshal_attributes@c_DiverterValveMethod@AdvionLCObjects@@IEBAXAEAVc_xml_writer@lmx@@@Z
    2212  0x64070  ?marshal_attributes@c_EsiSource@AdvionObjects@@IEBAXAEAVc_xml_writer@lmx@@@Z
    2213  0x842d0  ?marshal_attributes@c_ExtractedAnalogOutput@AdvionObjects@@IEBAXAEAVc_xml_writer@lmx@@@Z
    2214  0x738a0  ?marshal_attributes@c_ExtractedPeakTrigger@AdvionObjects@@IEBAXAEAVc_xml_writer@lmx@@@Z
    2215 0x10eea0  ?marshal_attributes@c_Filter@AdvionObjects@@IEBAXAEAVc_xml_writer@lmx@@@Z
    2216  0x8eaa0  ?marshal_attributes@c_GlobalPeakDetection@AdvionObjects@@IEBAXAEAVc_xml_writer@lmx@@@Z
    2217  0x56870  ?marshal_attributes@c_GradientMethod@AdvionLCObjects@@IEBAXAEAVc_xml_writer@lmx@@@Z
    2218  0x1f6b0  ?marshal_attributes@c_GradientPumpType@AdvionLCObjects@@IEBAXAEAVc_xml_writer@lmx@@@Z
    2219 0x10eeb0  ?marshal_attributes@c_GraphInfo@AdvionObjects@@IEBAXAEAVc_xml_writer@lmx@@@Z
    2220 0x130ba0  ?marshal_attributes@c_IntegrationBaseline@AdvionObjects@@IEBAXAEAVc_xml_writer@lmx@@@Z
    2221 0x10eec0  ?marshal_attributes@c_IntegrationPoint@AdvionObjects@@IEBAXAEAVc_xml_writer@lmx@@@Z
    2222  0x697d0  ?marshal_attributes@c_IonSource@AdvionObjects@@IEBAXAEAVc_xml_writer@lmx@@@Z
    2223 0x10eed0  ?marshal_attributes@c_MassOfInterest@AdvionObjects@@IEBAXAEAVc_xml_writer@lmx@@@Z
    2224 0x10eee0  ?marshal_attributes@c_MethodType@AdvionObjects@@IEBAXAEAVc_xml_writer@lmx@@@Z
    2225  0x946b0  ?marshal_attributes@c_ParentChromGraphInfo@AdvionObjects@@IEBAXAEAVc_xml_writer@lmx@@@Z
    2226 0x130bb0  ?marshal_attributes@c_Peak@AdvionObjects@@IEBAXAEAVc_xml_writer@lmx@@@Z
    2227 0x10eef0  ?marshal_attributes@c_PeakDetectionType@AdvionObjects@@IEBAXAEAVc_xml_writer@lmx@@@Z
    2228  0x71c40  ?marshal_attributes@c_PeakTrigger@AdvionObjects@@IEBAXAEAVc_xml_writer@lmx@@@Z
    2229  0x56880  ?marshal_attributes@c_PumpMethod@AdvionLCObjects@@IEBAXAEAVc_xml_writer@lmx@@@Z
    2230  0x79a30  ?marshal_attributes@c_QuantScanMode@AdvionObjects@@IEBAXAEAVc_xml_writer@lmx@@@Z
    2231  0x9f650  ?marshal_attributes@c_QuantitationType@AdvionObjects@@IEBAXAEAVc_xml_writer@lmx@@@Z
    2232  0x7db40  ?marshal_attributes@c_RangeScanMode@AdvionObjects@@IEBAXAEAVc_xml_writer@lmx@@@Z
    2233  0x70530  ?marshal_attributes@c_RepeatTimeTrigger@AdvionObjects@@IEBAXAEAVc_xml_writer@lmx@@@Z
    2234  0x857a0  ?marshal_attributes@c_SIMAnalogOutput@AdvionObjects@@IEBAXAEAVc_xml_writer@lmx@@@Z
    2235  0x74d70  ?marshal_attributes@c_SIMPeakTrigger@AdvionObjects@@IEBAXAEAVc_xml_writer@lmx@@@Z
    2236  0x7ea10  ?marshal_attributes@c_SIMScanMode@AdvionObjects@@IEBAXAEAVc_xml_writer@lmx@@@Z
    2237  0x56890  ?marshal_attributes@c_SamplerMethod@AdvionLCObjects@@IEBAXAEAVc_xml_writer@lmx@@@Z
    2238  0x97140  ?marshal_attributes@c_ScalarChannelChromGraphInfo@AdvionObjects@@IEBAXAEAVc_xml_writer@lmx@@@Z
    2239 0x10ef00  ?marshal_attributes@c_ScanMode@AdvionObjects@@IEBAXAEAVc_xml_writer@lmx@@@Z
    2240 0x10ef10  ?marshal_attributes@c_SemiQuantIsotope@AdvionObjects@@IEBAXAEAVc_xml_writer@lmx@@@Z
    2241 0x10ef20  ?marshal_attributes@c_SemiQuantSettings@AdvionObjects@@IEBAXAEAVc_xml_writer@lmx@@@Z
    2242 0x10ef30  ?marshal_attributes@c_SemiQuantStandard@AdvionObjects@@IEBAXAEAVc_xml_writer@lmx@@@Z
    2243 0x10ef40  ?marshal_attributes@c_Smoothing@AdvionObjects@@IEBAXAEAVc_xml_writer@lmx@@@Z
    2244  0x92680  ?marshal_attributes@c_SpectrumGraphInfo@AdvionObjects@@IEBAXAEAVc_xml_writer@lmx@@@Z
    2245  0x83780  ?marshal_attributes@c_TICAnalogOutput@AdvionObjects@@IEBAXAEAVc_xml_writer@lmx@@@Z
    2246  0x95030  ?marshal_attributes@c_TICChromGraphInfo@AdvionObjects@@IEBAXAEAVc_xml_writer@lmx@@@Z
    2247  0x72d50  ?marshal_attributes@c_TICPeakTrigger@AdvionObjects@@IEBAXAEAVc_xml_writer@lmx@@@Z
    2248  0x7fe80  ?marshal_attributes@c_TimeBaselineRemoval@AdvionObjects@@IEBAXAEAVc_xml_writer@lmx@@@Z
    2249  0x6f8b0  ?marshal_attributes@c_TimeTrigger@AdvionObjects@@IEBAXAEAVc_xml_writer@lmx@@@Z
    2250  0x81310  ?marshal_attributes@c_TriangleAnalogOutputSmoothing@AdvionObjects@@IEBAXAEAVc_xml_writer@lmx@@@Z
    2251  0x568a0  ?marshal_attributes@c_UVAnalogOutput@AdvionLCObjects@@IEBAXAEAVc_xml_writer@lmx@@@Z
    2252  0x568b0  ?marshal_attributes@c_UVChannel@AdvionLCObjects@@IEBAXAEAVc_xml_writer@lmx@@@Z
    2253   0xb560  ?marshal_attributes@c_UVChannelAnalogOutput@AdvionLCObjects@@IEBAXAEAVc_xml_writer@lmx@@@Z
    2254  0x18cf0  ?marshal_attributes@c_UVChannelScanMode@AdvionLCObjects@@IEBAXAEAVc_xml_writer@lmx@@@Z
    2255  0x568c0  ?marshal_attributes@c_UVDetectorMethod@AdvionLCObjects@@IEBAXAEAVc_xml_writer@lmx@@@Z
    2256   0x8ce0  ?marshal_attributes@c_UVRangeScanMode@AdvionLCObjects@@IEBAXAEAVc_xml_writer@lmx@@@Z
    2257  0x568d0  ?marshal_attributes@c_UVScanMode@AdvionLCObjects@@IEBAXAEAVc_xml_writer@lmx@@@Z
    2258  0x84db0  ?marshal_attributes@c_XICAnalogOutput@AdvionObjects@@IEBAXAEAVc_xml_writer@lmx@@@Z
    2259  0x95a40  ?marshal_attributes@c_XICChromGraphInfo@AdvionObjects@@IEBAXAEAVc_xml_writer@lmx@@@Z
    2260  0x74380  ?marshal_attributes@c_XICPeakTrigger@AdvionObjects@@IEBAXAEAVc_xml_writer@lmx@@@Z
    2261 0x10ef50  ?marshal_attributes@c_additionalMasses@c_Analyte@AdvionObjects@@IEBAXAEAVc_xml_writer@lmx@@@Z
    2262 0x141630  ?marshal_attributes@c_calibration@AdvionObjects@@IEBAXAEAVc_xml_writer@lmx@@@Z
    2263 0x141640  ?marshal_attributes@c_calibrationSegment@AdvionObjects@@IEBAXAEAVc_xml_writer@lmx@@@Z
    2264  0x66630  ?marshal_attributes@c_ionSourceOptimization@AdvionObjects@@IEBAXAEAVc_xml_writer@lmx@@@Z
    2265 0x141650  ?marshal_attributes@c_massCalibration@AdvionObjects@@IEBAXAEAVc_xml_writer@lmx@@@Z
    2266  0xa35e0  ?marshal_attributes@c_method@AdvionObjects@@IEBAXAEAVc_xml_writer@lmx@@@Z
    2267  0x8d950  ?marshal_attributes@c_peakDetection@AdvionObjects@@IEBAXAEAVc_xml_writer@lmx@@@Z
    2268 0x129c00  ?marshal_attributes@c_peakList@AdvionObjects@@IEBAXAEAVc_xml_writer@lmx@@@Z
    2269  0x9d4c0  ?marshal_attributes@c_processMethod@AdvionObjects@@IEBAXAEAVc_xml_writer@lmx@@@Z
    2270 0x133ec0  ?marshal_attributes@c_speedCalibration@AdvionObjects@@IEBAXAEAVc_xml_writer@lmx@@@Z
    2271 0x137950  ?marshal_attributes@c_tuneParameters@AdvionObjects@@IEBAXAEAVc_xml_writer@lmx@@@Z
    2272  0x14ca0  ?marshal_attributes@c_uvDetectorDeviceInfo@AdvionLCObjects@@IEBAXAEAVc_xml_writer@lmx@@@Z
    2273  0x769c0  ?marshal_child_elements@c_AdditionalInfo@AdvionObjects@@IEBA?AW4elmx_error@lmx@@AEAVc_xml_writer@4@@Z
    2274  0x19e30  ?marshal_child_elements@c_AdvionColumnOvenMethodType@AdvionLCObjects@@IEBA?AW4elmx_error@lmx@@AEAVc_xml_writer@4@@Z
    2275  0x180a0  ?marshal_child_elements@c_AdvionLCMethod@AdvionLCObjects@@IEBA?AW4elmx_error@lmx@@AEAVc_xml_writer@4@@Z
    2276  0x16560  ?marshal_child_elements@c_AdvionLCMethodType@AdvionLCObjects@@IEBA?AW4elmx_error@lmx@@AEAVc_xml_writer@4@@Z
    2277  0x1d810  ?marshal_child_elements@c_AdvionUVMethodType@AdvionLCObjects@@IEBA?AW4elmx_error@lmx@@AEAVc_xml_writer@4@@Z
    2278  0x1c850  ?marshal_child_elements@c_AliasMethodType@AdvionLCObjects@@IEBA?AW4elmx_error@lmx@@AEAVc_xml_writer@4@@Z
    2279  0x6e000  ?marshal_child_elements@c_AnalogInput@AdvionObjects@@IEBA?AW4elmx_error@lmx@@AEAVc_xml_writer@4@@Z
    2280  0x87530  ?marshal_child_elements@c_AnalogInputs@AdvionObjects@@IEBA?AW4elmx_error@lmx@@AEAVc_xml_writer@4@@Z
    2281  0x825c0  ?marshal_child_elements@c_AnalogOutput@AdvionObjects@@IEBA?AW4elmx_error@lmx@@AEAVc_xml_writer@4@@Z
    2282  0x809d0  ?marshal_child_elements@c_AnalogOutputSmoothing@AdvionObjects@@IEBA?AW4elmx_error@lmx@@AEAVc_xml_writer@4@@Z
    2283  0x97ce0  ?marshal_child_elements@c_AnalogOutputs@AdvionObjects@@IEBA?AW4elmx_error@lmx@@AEAVc_xml_writer@4@@Z
    2284  0x9b4e0  ?marshal_child_elements@c_Analyte@AdvionObjects@@IEBA?AW4elmx_error@lmx@@AEAVc_xml_writer@4@@Z
    2285  0x8bf30  ?marshal_child_elements@c_AnalyteSettings@AdvionObjects@@IEBA?AW4elmx_error@lmx@@AEAVc_xml_writer@4@@Z
    2286  0x633a0  ?marshal_child_elements@c_ApciSource@AdvionObjects@@IEBA?AW4elmx_error@lmx@@AEAVc_xml_writer@4@@Z
    2287  0x118b0  ?marshal_child_elements@c_AvantSamplerCooling@AdvionLCObjects@@IEBA?AW4elmx_error@lmx@@AEAVc_xml_writer@4@@Z
    2288   0xf650  ?marshal_child_elements@c_AvantSamplerInjection@AdvionLCObjects@@IEBA?AW4elmx_error@lmx@@AEAVc_xml_writer@4@@Z
    2289  0x1bb00  ?marshal_child_elements@c_AvantSamplerMethodType@AdvionLCObjects@@IEBA?AW4elmx_error@lmx@@AEAVc_xml_writer@4@@Z
    2290  0x123c0  ?marshal_child_elements@c_AvantSamplerValveWash@AdvionLCObjects@@IEBA?AW4elmx_error@lmx@@AEAVc_xml_writer@4@@Z
    2291  0x10c80  ?marshal_child_elements@c_AvantSamplerWashLine@AdvionLCObjects@@IEBA?AW4elmx_error@lmx@@AEAVc_xml_writer@4@@Z
    2292  0x8fb70  ?marshal_child_elements@c_BackgroundOptions@AdvionObjects@@IEBA?AW4elmx_error@lmx@@AEAVc_xml_writer@4@@Z
    2293  0x7bc20  ?marshal_child_elements@c_BackgroundSpectrum@AdvionObjects@@IEBA?AW4elmx_error@lmx@@AEAVc_xml_writer@4@@Z
    2294  0x93270  ?marshal_child_elements@c_BackgroundSpectrumGraphInfo@AdvionObjects@@IEBA?AW4elmx_error@lmx@@AEAVc_xml_writer@4@@Z
    2295  0x96630  ?marshal_child_elements@c_BasePeakChromGraphInfo@AdvionObjects@@IEBA?AW4elmx_error@lmx@@AEAVc_xml_writer@4@@Z
    2296  0x7f490  ?marshal_child_elements@c_BaselineRemoval@AdvionObjects@@IEBA?AW4elmx_error@lmx@@AEAVc_xml_writer@4@@Z
    2297  0x7ccf0  ?marshal_child_elements@c_BoxFilter@AdvionObjects@@IEBA?AW4elmx_error@lmx@@AEAVc_xml_writer@4@@Z
    2298  0x78140  ?marshal_child_elements@c_CalibrationAnalyte@AdvionObjects@@IEBA?AW4elmx_error@lmx@@AEAVc_xml_writer@4@@Z
    2299  0x89d80  ?marshal_child_elements@c_CalibrationStandard@AdvionObjects@@IEBA?AW4elmx_error@lmx@@AEAVc_xml_writer@4@@Z
    2300  0x93d90  ?marshal_child_elements@c_ChromGraphInfo@AdvionObjects@@IEBA?AW4elmx_error@lmx@@AEAVc_xml_writer@4@@Z
    2301  0x6ef30  ?marshal_child_elements@c_ClosureOutTrigger@AdvionObjects@@IEBA?AW4elmx_error@lmx@@AEAVc_xml_writer@4@@Z
    2302   0xdcc0  ?marshal_child_elements@c_ClosureTriggerIn@AdvionLCObjects@@IEBA?AW4elmx_error@lmx@@AEAVc_xml_writer@4@@Z
    2303  0x77570  ?marshal_child_elements@c_ClosureTriggerIn@AdvionObjects@@IEBA?AW4elmx_error@lmx@@AEAVc_xml_writer@4@@Z
    2304 0x135dc0  ?marshal_child_elements@c_CmsTuneParametersType@AdvionObjects@@IEBA?AW4elmx_error@lmx@@AEAVc_xml_writer@4@@Z
    2305   0x7150  ?marshal_child_elements@c_ColumnOvenMethod@AdvionLCObjects@@IEBA?AW4elmx_error@lmx@@AEAVc_xml_writer@4@@Z
    2306  0x1ac90  ?marshal_child_elements@c_ContactClosureIn@AdvionLCObjects@@IEBA?AW4elmx_error@lmx@@AEAVc_xml_writer@4@@Z
    2307  0x88f50  ?marshal_child_elements@c_ContactClosureIn@AdvionObjects@@IEBA?AW4elmx_error@lmx@@AEAVc_xml_writer@4@@Z
    2308  0x880a0  ?marshal_child_elements@c_ContactClosureOut@AdvionObjects@@IEBA?AW4elmx_error@lmx@@AEAVc_xml_writer@4@@Z
    2309  0x989f0  ?marshal_child_elements@c_ContactClosuresOut@AdvionObjects@@IEBA?AW4elmx_error@lmx@@AEAVc_xml_writer@4@@Z
    2310  0x64bb0  ?marshal_child_elements@c_DartSource@AdvionObjects@@IEBA?AW4elmx_error@lmx@@AEAVc_xml_writer@4@@Z
    2311  0x6b210  ?marshal_child_elements@c_DeltaBackgroundParameters@AdvionObjects@@IEBA?AW4elmx_error@lmx@@AEAVc_xml_writer@4@@Z
    2312  0x861d0  ?marshal_child_elements@c_DeltaICAnalogOutput@AdvionObjects@@IEBA?AW4elmx_error@lmx@@AEAVc_xml_writer@4@@Z
    2313  0x757a0  ?marshal_child_elements@c_DeltaICPeakTrigger@AdvionObjects@@IEBA?AW4elmx_error@lmx@@AEAVc_xml_writer@4@@Z
    2314  0x86ab0  ?marshal_child_elements@c_DeltaXICAnalogOutput@AdvionObjects@@IEBA?AW4elmx_error@lmx@@AEAVc_xml_writer@4@@Z
    2315  0x76080  ?marshal_child_elements@c_DeltaXICPeakTrigger@AdvionObjects@@IEBA?AW4elmx_error@lmx@@AEAVc_xml_writer@4@@Z
    2316   0xc430  ?marshal_child_elements@c_DiverterValveMethod@AdvionLCObjects@@IEBA?AW4elmx_error@lmx@@AEAVc_xml_writer@4@@Z
    2317  0x640b0  ?marshal_child_elements@c_EsiSource@AdvionObjects@@IEBA?AW4elmx_error@lmx@@AEAVc_xml_writer@4@@Z
    2318  0x84310  ?marshal_child_elements@c_ExtractedAnalogOutput@AdvionObjects@@IEBA?AW4elmx_error@lmx@@AEAVc_xml_writer@4@@Z
    2319  0x738e0  ?marshal_child_elements@c_ExtractedPeakTrigger@AdvionObjects@@IEBA?AW4elmx_error@lmx@@AEAVc_xml_writer@4@@Z
    2320  0x7c450  ?marshal_child_elements@c_Filter@AdvionObjects@@IEBA?AW4elmx_error@lmx@@AEAVc_xml_writer@4@@Z
    2321  0x8eae0  ?marshal_child_elements@c_GlobalPeakDetection@AdvionObjects@@IEBA?AW4elmx_error@lmx@@AEAVc_xml_writer@4@@Z
    2322   0xcfd0  ?marshal_child_elements@c_GradientMethod@AdvionLCObjects@@IEBA?AW4elmx_error@lmx@@AEAVc_xml_writer@4@@Z
    2323  0x1f6f0  ?marshal_child_elements@c_GradientPumpType@AdvionLCObjects@@IEBA?AW4elmx_error@lmx@@AEAVc_xml_writer@4@@Z
    2324  0x90e10  ?marshal_child_elements@c_GraphInfo@AdvionObjects@@IEBA?AW4elmx_error@lmx@@AEAVc_xml_writer@4@@Z
    2325 0x126f80  ?marshal_child_elements@c_IntegrationBaseline@AdvionObjects@@IEBA?AW4elmx_error@lmx@@AEAVc_xml_writer@4@@Z
    2326  0x7b0c0  ?marshal_child_elements@c_IntegrationPoint@AdvionObjects@@IEBA?AW4elmx_error@lmx@@AEAVc_xml_writer@4@@Z
    2327  0x62960  ?marshal_child_elements@c_IonSource@AdvionObjects@@IEBA?AW4elmx_error@lmx@@AEAVc_xml_writer@4@@Z
    2328  0x6c410  ?marshal_child_elements@c_MassOfInterest@AdvionObjects@@IEBA?AW4elmx_error@lmx@@AEAVc_xml_writer@4@@Z
    2329  0xa14d0  ?marshal_child_elements@c_MethodType@AdvionObjects@@IEBA?AW4elmx_error@lmx@@AEAVc_xml_writer@4@@Z
    2330  0x946f0  ?marshal_child_elements@c_ParentChromGraphInfo@AdvionObjects@@IEBA?AW4elmx_error@lmx@@AEAVc_xml_writer@4@@Z
    2331 0x128040  ?marshal_child_elements@c_Peak@AdvionObjects@@IEBA?AW4elmx_error@lmx@@AEAVc_xml_writer@4@@Z
    2332  0x7a3f0  ?marshal_child_elements@c_PeakDetectionType@AdvionObjects@@IEBA?AW4elmx_error@lmx@@AEAVc_xml_writer@4@@Z
    2333  0x71c80  ?marshal_child_elements@c_PeakTrigger@AdvionObjects@@IEBA?AW4elmx_error@lmx@@AEAVc_xml_writer@4@@Z
    2334   0x6410  ?marshal_child_elements@c_PumpMethod@AdvionLCObjects@@IEBA?AW4elmx_error@lmx@@AEAVc_xml_writer@4@@Z
    2335  0x79a90  ?marshal_child_elements@c_QuantScanMode@AdvionObjects@@IEBA?AW4elmx_error@lmx@@AEAVc_xml_writer@4@@Z
    2336  0x9f6b0  ?marshal_child_elements@c_QuantitationType@AdvionObjects@@IEBA?AW4elmx_error@lmx@@AEAVc_xml_writer@4@@Z
    2337  0x7db80  ?marshal_child_elements@c_RangeScanMode@AdvionObjects@@IEBA?AW4elmx_error@lmx@@AEAVc_xml_writer@4@@Z
    2338  0x70570  ?marshal_child_elements@c_RepeatTimeTrigger@AdvionObjects@@IEBA?AW4elmx_error@lmx@@AEAVc_xml_writer@4@@Z
    2339  0x857e0  ?marshal_child_elements@c_SIMAnalogOutput@AdvionObjects@@IEBA?AW4elmx_error@lmx@@AEAVc_xml_writer@4@@Z
    2340  0x74db0  ?marshal_child_elements@c_SIMPeakTrigger@AdvionObjects@@IEBA?AW4elmx_error@lmx@@AEAVc_xml_writer@4@@Z
    2341  0x7ea50  ?marshal_child_elements@c_SIMScanMode@AdvionObjects@@IEBA?AW4elmx_error@lmx@@AEAVc_xml_writer@4@@Z
    2342   0x6ae0  ?marshal_child_elements@c_SamplerMethod@AdvionLCObjects@@IEBA?AW4elmx_error@lmx@@AEAVc_xml_writer@4@@Z
    2343  0x97180  ?marshal_child_elements@c_ScalarChannelChromGraphInfo@AdvionObjects@@IEBA?AW4elmx_error@lmx@@AEAVc_xml_writer@4@@Z
    2344  0x6a660  ?marshal_child_elements@c_ScanMode@AdvionObjects@@IEBA?AW4elmx_error@lmx@@AEAVc_xml_writer@4@@Z
    2345  0x78c50  ?marshal_child_elements@c_SemiQuantIsotope@AdvionObjects@@IEBA?AW4elmx_error@lmx@@AEAVc_xml_writer@4@@Z
    2346  0x99540  ?marshal_child_elements@c_SemiQuantSettings@AdvionObjects@@IEBA?AW4elmx_error@lmx@@AEAVc_xml_writer@4@@Z
    2347  0x8a930  ?marshal_child_elements@c_SemiQuantStandard@AdvionObjects@@IEBA?AW4elmx_error@lmx@@AEAVc_xml_writer@4@@Z
    2348  0x6d270  ?marshal_child_elements@c_Smoothing@AdvionObjects@@IEBA?AW4elmx_error@lmx@@AEAVc_xml_writer@4@@Z
    2349  0x926c0  ?marshal_child_elements@c_SpectrumGraphInfo@AdvionObjects@@IEBA?AW4elmx_error@lmx@@AEAVc_xml_writer@4@@Z
    2350  0x837c0  ?marshal_child_elements@c_TICAnalogOutput@AdvionObjects@@IEBA?AW4elmx_error@lmx@@AEAVc_xml_writer@4@@Z
    2351  0x95070  ?marshal_child_elements@c_TICChromGraphInfo@AdvionObjects@@IEBA?AW4elmx_error@lmx@@AEAVc_xml_writer@4@@Z
    2352  0x72d90  ?marshal_child_elements@c_TICPeakTrigger@AdvionObjects@@IEBA?AW4elmx_error@lmx@@AEAVc_xml_writer@4@@Z
    2353  0x7fec0  ?marshal_child_elements@c_TimeBaselineRemoval@AdvionObjects@@IEBA?AW4elmx_error@lmx@@AEAVc_xml_writer@4@@Z
    2354  0x6f8f0  ?marshal_child_elements@c_TimeTrigger@AdvionObjects@@IEBA?AW4elmx_error@lmx@@AEAVc_xml_writer@4@@Z
    2355  0x81350  ?marshal_child_elements@c_TriangleAnalogOutputSmoothing@AdvionObjects@@IEBA?AW4elmx_error@lmx@@AEAVc_xml_writer@4@@Z
    2356   0xaaa0  ?marshal_child_elements@c_UVAnalogOutput@AdvionLCObjects@@IEBA?AW4elmx_error@lmx@@AEAVc_xml_writer@4@@Z
    2357   0x9d60  ?marshal_child_elements@c_UVChannel@AdvionLCObjects@@IEBA?AW4elmx_error@lmx@@AEAVc_xml_writer@4@@Z
    2358   0xb5a0  ?marshal_child_elements@c_UVChannelAnalogOutput@AdvionLCObjects@@IEBA?AW4elmx_error@lmx@@AEAVc_xml_writer@4@@Z
    2359  0x18d30  ?marshal_child_elements@c_UVChannelScanMode@AdvionLCObjects@@IEBA?AW4elmx_error@lmx@@AEAVc_xml_writer@4@@Z
    2360   0x77c0  ?marshal_child_elements@c_UVDetectorMethod@AdvionLCObjects@@IEBA?AW4elmx_error@lmx@@AEAVc_xml_writer@4@@Z
    2361   0x8d20  ?marshal_child_elements@c_UVRangeScanMode@AdvionLCObjects@@IEBA?AW4elmx_error@lmx@@AEAVc_xml_writer@4@@Z
    2362   0x8050  ?marshal_child_elements@c_UVScanMode@AdvionLCObjects@@IEBA?AW4elmx_error@lmx@@AEAVc_xml_writer@4@@Z
    2363  0x84df0  ?marshal_child_elements@c_XICAnalogOutput@AdvionObjects@@IEBA?AW4elmx_error@lmx@@AEAVc_xml_writer@4@@Z
    2364  0x95a80  ?marshal_child_elements@c_XICChromGraphInfo@AdvionObjects@@IEBA?AW4elmx_error@lmx@@AEAVc_xml_writer@4@@Z
    2365  0x743c0  ?marshal_child_elements@c_XICPeakTrigger@AdvionObjects@@IEBA?AW4elmx_error@lmx@@AEAVc_xml_writer@4@@Z
    2366  0x9a100  ?marshal_child_elements@c_additionalMasses@c_Analyte@AdvionObjects@@IEBA?AW4elmx_error@lmx@@AEAVc_xml_writer@5@@Z
    2367 0x1333f0  ?marshal_child_elements@c_calibration@AdvionObjects@@IEBA?AW4elmx_error@lmx@@AEAVc_xml_writer@4@@Z
    2368 0x132860  ?marshal_child_elements@c_calibrationSegment@AdvionObjects@@IEBA?AW4elmx_error@lmx@@AEAVc_xml_writer@4@@Z
    2369  0x66690  ?marshal_child_elements@c_ionSourceOptimization@AdvionObjects@@IEBA?AW4elmx_error@lmx@@AEAVc_xml_writer@4@@Z
    2370 0x134a80  ?marshal_child_elements@c_massCalibration@AdvionObjects@@IEBA?AW4elmx_error@lmx@@AEAVc_xml_writer@4@@Z
    2371  0xa3650  ?marshal_child_elements@c_method@AdvionObjects@@IEBA?AW4elmx_error@lmx@@AEAVc_xml_writer@4@@Z
    2372  0x8d9b0  ?marshal_child_elements@c_peakDetection@AdvionObjects@@IEBA?AW4elmx_error@lmx@@AEAVc_xml_writer@4@@Z
    2373 0x129c60  ?marshal_child_elements@c_peakList@AdvionObjects@@IEBA?AW4elmx_error@lmx@@AEAVc_xml_writer@4@@Z
    2374  0x9d520  ?marshal_child_elements@c_processMethod@AdvionObjects@@IEBA?AW4elmx_error@lmx@@AEAVc_xml_writer@4@@Z
    2375 0x133f20  ?marshal_child_elements@c_speedCalibration@AdvionObjects@@IEBA?AW4elmx_error@lmx@@AEAVc_xml_writer@4@@Z
    2376 0x1379c0  ?marshal_child_elements@c_tuneParameters@AdvionObjects@@IEBA?AW4elmx_error@lmx@@AEAVc_xml_writer@4@@Z
    2377  0x14d00  ?marshal_child_elements@c_uvDetectorDeviceInfo@AdvionLCObjects@@IEBA?AW4elmx_error@lmx@@AEAVc_xml_writer@4@@Z
    2378  0x57420  ?ns_map@c_AdvionLCMethod@AdvionLCObjects@@SAPEBUs_ns_map@lmx@@XZ
    2379  0x697e0  ?ns_map@c_ionSourceOptimization@AdvionObjects@@SAPEBUs_ns_map@lmx@@XZ
    2380 0x10fe40  ?ns_map@c_method@AdvionObjects@@SAPEBUs_ns_map@lmx@@XZ
    2381 0x10fe50  ?ns_map@c_peakDetection@AdvionObjects@@SAPEBUs_ns_map@lmx@@XZ
    2382 0x130c90  ?ns_map@c_peakList@AdvionObjects@@SAPEBUs_ns_map@lmx@@XZ
    2383 0x10fe60  ?ns_map@c_processMethod@AdvionObjects@@SAPEBUs_ns_map@lmx@@XZ
    2384 0x141660  ?ns_map@c_tuneParameters@AdvionObjects@@SAPEBUs_ns_map@lmx@@XZ
    2385  0x57430  ?ns_map@c_uvDetectorDeviceInfo@AdvionLCObjects@@SAPEBUs_ns_map@lmx@@XZ
    2386 0x121f00  ?parseIonSource@ObjectUtility@AdvionObjects@@SA?AVc_ionSourceOptimization@2@PEBDPEAW4ErrorCode@2@@Z
    2387 0x121d80  ?parseMethod@ObjectUtility@AdvionObjects@@SA?AVc_method@2@PEBDPEAW4ErrorCode@2@@Z
    2388 0x1227a0  ?parsePeakDetection@ObjectUtility@AdvionObjects@@SA?AVc_peakDetection@2@PEBDPEAW4ErrorCode@2@@Z
    2389 0x122620  ?parsePeakList@ObjectUtility@AdvionObjects@@SA?AVc_peakList@2@PEBDPEAW4ErrorCode@2@@Z
    2390 0x1224a0  ?parseProcessMethod@ObjectUtility@AdvionObjects@@SA?AVc_processMethod@2@PEBDPEAW4ErrorCode@2@@Z
    2391 0x122080  ?parseTuneParameters@ObjectUtility@AdvionObjects@@SA?AVc_tuneParameters@2@PEBDPEAW4ErrorCode@2@@Z
    2392 0x122900  ?parseVersion@ObjectUtility@AdvionObjects@@KA_NPEB_WPEAH1@Z
    2393  0x76920  ?reset@c_AdditionalInfo@AdvionObjects@@QEAAXXZ
    2394  0x19d50  ?reset@c_AdvionColumnOvenMethodType@AdvionLCObjects@@QEAAXXZ
    2395  0x17f90  ?reset@c_AdvionLCMethod@AdvionLCObjects@@QEAAXXZ
    2396  0x164e0  ?reset@c_AdvionLCMethodType@AdvionLCObjects@@QEAAXXZ
    2397  0x1d750  ?reset@c_AdvionUVMethodType@AdvionLCObjects@@QEAAXXZ
    2398  0x1c790  ?reset@c_AliasMethodType@AdvionLCObjects@@QEAAXXZ
    2399  0x6df60  ?reset@c_AnalogInput@AdvionObjects@@QEAAXXZ
    2400  0x874c0  ?reset@c_AnalogInputs@AdvionObjects@@QEAAXXZ
    2401  0x82520  ?reset@c_AnalogOutput@AdvionObjects@@QEAAXXZ
    2402  0x80960  ?reset@c_AnalogOutputSmoothing@AdvionObjects@@QEAAXXZ
    2403  0x97c70  ?reset@c_AnalogOutputs@AdvionObjects@@QEAAXXZ
    2404  0x9b3e0  ?reset@c_Analyte@AdvionObjects@@QEAAXXZ
    2405  0x8bda0  ?reset@c_AnalyteSettings@AdvionObjects@@QEAAXXZ
    2406  0x632f0  ?reset@c_ApciSource@AdvionObjects@@QEAAXXZ
    2407  0x11840  ?reset@c_AvantSamplerCooling@AdvionLCObjects@@QEAAXXZ
    2408   0xf5b0  ?reset@c_AvantSamplerInjection@AdvionLCObjects@@QEAAXXZ
    2409  0x1ba40  ?reset@c_AvantSamplerMethodType@AdvionLCObjects@@QEAAXXZ
    2410  0x12350  ?reset@c_AvantSamplerValveWash@AdvionLCObjects@@QEAAXXZ
    2411  0x10be0  ?reset@c_AvantSamplerWashLine@AdvionLCObjects@@QEAAXXZ
    2412  0x8fb00  ?reset@c_BackgroundOptions@AdvionObjects@@QEAAXXZ
    2413  0x7bbb0  ?reset@c_BackgroundSpectrum@AdvionObjects@@QEAAXXZ
    2414  0x931b0  ?reset@c_BackgroundSpectrumGraphInfo@AdvionObjects@@QEAAXXZ
    2415  0x96570  ?reset@c_BasePeakChromGraphInfo@AdvionObjects@@QEAAXXZ
    2416  0x7f420  ?reset@c_BaselineRemoval@AdvionObjects@@QEAAXXZ
    2417  0x7cc40  ?reset@c_BoxFilter@AdvionObjects@@QEAAXXZ
    2418  0x78040  ?reset@c_CalibrationAnalyte@AdvionObjects@@QEAAXXZ
    2419  0x89c60  ?reset@c_CalibrationStandard@AdvionObjects@@QEAAXXZ
    2420  0x93cd0  ?reset@c_ChromGraphInfo@AdvionObjects@@QEAAXXZ
    2421  0x6eec0  ?reset@c_ClosureOutTrigger@AdvionObjects@@QEAAXXZ
    2422   0xdc50  ?reset@c_ClosureTriggerIn@AdvionLCObjects@@QEAAXXZ
    2423  0x77500  ?reset@c_ClosureTriggerIn@AdvionObjects@@QEAAXXZ
    2424 0x135d40  ?reset@c_CmsTuneParametersType@AdvionObjects@@QEAAXXZ
    2425   0x70e0  ?reset@c_ColumnOvenMethod@AdvionLCObjects@@QEAAXXZ
    2426  0x1ac20  ?reset@c_ContactClosureIn@AdvionLCObjects@@QEAAXXZ
    2427  0x88ee0  ?reset@c_ContactClosureIn@AdvionObjects@@QEAAXXZ
    2428  0x88030  ?reset@c_ContactClosureOut@AdvionObjects@@QEAAXXZ
    2429  0x98980  ?reset@c_ContactClosuresOut@AdvionObjects@@QEAAXXZ
    2430  0x64b00  ?reset@c_DartSource@AdvionObjects@@QEAAXXZ
    2431  0x6b190  ?reset@c_DeltaBackgroundParameters@AdvionObjects@@QEAAXXZ
    2432  0x860f0  ?reset@c_DeltaICAnalogOutput@AdvionObjects@@QEAAXXZ
    2433  0x756c0  ?reset@c_DeltaICPeakTrigger@AdvionObjects@@QEAAXXZ
    2434  0x869d0  ?reset@c_DeltaXICAnalogOutput@AdvionObjects@@QEAAXXZ
    2435  0x75fa0  ?reset@c_DeltaXICPeakTrigger@AdvionObjects@@QEAAXXZ
    2436   0xc390  ?reset@c_DiverterValveMethod@AdvionLCObjects@@QEAAXXZ
    2437  0x64000  ?reset@c_EsiSource@AdvionObjects@@QEAAXXZ
    2438  0x84230  ?reset@c_ExtractedAnalogOutput@AdvionObjects@@QEAAXXZ
    2439  0x73800  ?reset@c_ExtractedPeakTrigger@AdvionObjects@@QEAAXXZ
    2440  0x7c3e0  ?reset@c_Filter@AdvionObjects@@QEAAXXZ
    2441  0x8ea20  ?reset@c_GlobalPeakDetection@AdvionObjects@@QEAAXXZ
    2442   0xcf60  ?reset@c_GradientMethod@AdvionLCObjects@@QEAAXXZ
    2443  0x1f610  ?reset@c_GradientPumpType@AdvionLCObjects@@QEAAXXZ
    2444  0x90d90  ?reset@c_GraphInfo@AdvionObjects@@QEAAXXZ
    2445 0x126f00  ?reset@c_IntegrationBaseline@AdvionObjects@@QEAAXXZ
    2446  0x7b020  ?reset@c_IntegrationPoint@AdvionObjects@@QEAAXXZ
    2447  0x628f0  ?reset@c_IonSource@AdvionObjects@@QEAAXXZ
    2448  0x6c390  ?reset@c_MassOfInterest@AdvionObjects@@QEAAXXZ
    2449  0xa1430  ?reset@c_MethodType@AdvionObjects@@QEAAXXZ
    2450  0x94630  ?reset@c_ParentChromGraphInfo@AdvionObjects@@QEAAXXZ
    2451 0x127fc0  ?reset@c_Peak@AdvionObjects@@QEAAXXZ
    2452  0x7a380  ?reset@c_PeakDetectionType@AdvionObjects@@QEAAXXZ
    2453  0x71ba0  ?reset@c_PeakTrigger@AdvionObjects@@QEAAXXZ
    2454   0x63a0  ?reset@c_PumpMethod@AdvionLCObjects@@QEAAXXZ
    2455  0x79990  ?reset@c_QuantScanMode@AdvionObjects@@QEAAXXZ
    2456  0x9f5b0  ?reset@c_QuantitationType@AdvionObjects@@QEAAXXZ
    2457  0x7dac0  ?reset@c_RangeScanMode@AdvionObjects@@QEAAXXZ
    2458  0x704c0  ?reset@c_RepeatTimeTrigger@AdvionObjects@@QEAAXXZ
    2459  0x85700  ?reset@c_SIMAnalogOutput@AdvionObjects@@QEAAXXZ
    2460  0x74cd0  ?reset@c_SIMPeakTrigger@AdvionObjects@@QEAAXXZ
    2461  0x7e9a0  ?reset@c_SIMScanMode@AdvionObjects@@QEAAXXZ
    2462   0x6a70  ?reset@c_SamplerMethod@AdvionLCObjects@@QEAAXXZ
    2463  0x970c0  ?reset@c_ScalarChannelChromGraphInfo@AdvionObjects@@QEAAXXZ
    2464  0x6a5f0  ?reset@c_ScanMode@AdvionObjects@@QEAAXXZ
    2465  0x78be0  ?reset@c_SemiQuantIsotope@AdvionObjects@@QEAAXXZ
    2466  0x994a0  ?reset@c_SemiQuantSettings@AdvionObjects@@QEAAXXZ
    2467  0x8a8b0  ?reset@c_SemiQuantStandard@AdvionObjects@@QEAAXXZ
    2468  0x6d200  ?reset@c_Smoothing@AdvionObjects@@QEAAXXZ
    2469  0x92600  ?reset@c_SpectrumGraphInfo@AdvionObjects@@QEAAXXZ
    2470  0x836e0  ?reset@c_TICAnalogOutput@AdvionObjects@@QEAAXXZ
    2471  0x94fb0  ?reset@c_TICChromGraphInfo@AdvionObjects@@QEAAXXZ
    2472  0x72cb0  ?reset@c_TICPeakTrigger@AdvionObjects@@QEAAXXZ
    2473  0x7fe10  ?reset@c_TimeBaselineRemoval@AdvionObjects@@QEAAXXZ
    2474  0x6f840  ?reset@c_TimeTrigger@AdvionObjects@@QEAAXXZ
    2475  0x812a0  ?reset@c_TriangleAnalogOutputSmoothing@AdvionObjects@@QEAAXXZ
    2476   0xaa30  ?reset@c_UVAnalogOutput@AdvionLCObjects@@QEAAXXZ
    2477   0x9ce0  ?reset@c_UVChannel@AdvionLCObjects@@QEAAXXZ
    2478   0xb4f0  ?reset@c_UVChannelAnalogOutput@AdvionLCObjects@@QEAAXXZ
    2479  0x18c70  ?reset@c_UVChannelScanMode@AdvionLCObjects@@QEAAXXZ
    2480   0x7750  ?reset@c_UVDetectorMethod@AdvionLCObjects@@QEAAXXZ
    2481   0x8c60  ?reset@c_UVRangeScanMode@AdvionLCObjects@@QEAAXXZ
    2482   0x7fe0  ?reset@c_UVScanMode@AdvionLCObjects@@QEAAXXZ
    2483  0x84d10  ?reset@c_XICAnalogOutput@AdvionObjects@@QEAAXXZ
    2484  0x959c0  ?reset@c_XICChromGraphInfo@AdvionObjects@@QEAAXXZ
    2485  0x742e0  ?reset@c_XICPeakTrigger@AdvionObjects@@QEAAXXZ
    2486  0x9a090  ?reset@c_additionalMasses@c_Analyte@AdvionObjects@@QEAAXXZ
    2487 0x133380  ?reset@c_calibration@AdvionObjects@@QEAAXXZ
    2488 0x1327e0  ?reset@c_calibrationSegment@AdvionObjects@@QEAAXXZ
    2489  0x66590  ?reset@c_ionSourceOptimization@AdvionObjects@@QEAAXXZ
    2490 0x134a10  ?reset@c_massCalibration@AdvionObjects@@QEAAXXZ
    2491  0xa3540  ?reset@c_method@AdvionObjects@@QEAAXXZ
    2492  0x8d8b0  ?reset@c_peakDetection@AdvionObjects@@QEAAXXZ
    2493 0x129b60  ?reset@c_peakList@AdvionObjects@@QEAAXXZ
    2494  0x9d420  ?reset@c_processMethod@AdvionObjects@@QEAAXXZ
    2495 0x133e40  ?reset@c_speedCalibration@AdvionObjects@@QEAAXXZ
    2496 0x1378b0  ?reset@c_tuneParameters@AdvionObjects@@QEAAXXZ
    2497  0x14c00  ?reset@c_uvDetectorDeviceInfo@AdvionLCObjects@@QEAAXXZ
    2498 0x121300  ?serializeIonSource@ObjectUtility@AdvionObjects@@SAPEADAEBVc_ionSourceOptimization@2@@Z
    2499 0x1210e0  ?serializeMethod@ObjectUtility@AdvionObjects@@SAPEADAEBVc_method@2@@Z
    2500 0x121b60  ?serializePeakList@ObjectUtility@AdvionObjects@@SAPEADAEBVc_peakList@2@@Z
    2501 0x121940  ?serializeProcessMethod@ObjectUtility@AdvionObjects@@SAPEADAEBVc_processMethod@2@@Z
    2502 0x121520  ?serializeTuneParameters@ObjectUtility@AdvionObjects@@SAPEADAEBVc_tuneParameters@2@@Z
    2503 0x117c50  ?set_aboveGradient@c_PeakTrigger@AdvionObjects@@QEAA?AW4elmx_error@lmx@@AEB_N@Z
    2504 0x117c90  ?set_aboveThreshold@c_PeakTrigger@AdvionObjects@@QEAA?AW4elmx_error@lmx@@AEB_N@Z
    2505  0x5c860  ?set_allowedChannelScanRate@c_uvDetectorDeviceInfo@AdvionLCObjects@@QEAA?AW4elmx_error@lmx@@_KAEBN@Z
    2506  0x5c8b0  ?set_allowedFilterTime@c_uvDetectorDeviceInfo@AdvionLCObjects@@QEAA?AW4elmx_error@lmx@@_KAEBN@Z
    2507  0x5c900  ?set_allowedSpectrumScanRate@c_uvDetectorDeviceInfo@AdvionLCObjects@@QEAA?AW4elmx_error@lmx@@_KAEBN@Z
    2508  0x5c950  ?set_analysisTime@c_AvantSamplerInjection@AdvionLCObjects@@QEAA?AW4elmx_error@lmx@@AEBN@Z
    2509 0x117cd0  ?set_analyteId@c_CalibrationAnalyte@AdvionObjects@@QEAA?AW4elmx_error@lmx@@AEBV?$basic_string@_WU?$char_traits@_W@std@@V?$allocator@_W@2@@std@@@Z
    2510 0x131390  ?set_area@c_Peak@AdvionObjects@@QEAA?AW4elmx_error@lmx@@AEBN@Z
    2511  0x786f0  ?set_atomicNumber@c_SemiQuantIsotope@AdvionObjects@@QEAA?AW4elmx_error@lmx@@AEBI@Z
    2512  0x5c9a0  ?set_autoZeroAfterAcquisition@c_AdvionUVMethodType@AdvionLCObjects@@QEAA?AW4elmx_error@lmx@@AEB_N@Z
    2513  0x5c9e0  ?set_autoZeroOnInjection@c_AdvionUVMethodType@AdvionLCObjects@@QEAA?AW4elmx_error@lmx@@AEB_N@Z
    2514 0x117d10  ?set_backgroundSubtraction@c_QuantitationType@AdvionObjects@@QEAA?AW4elmx_error@lmx@@AEB_N@Z
    2515  0x5ca20  ?set_bandwidth@c_UVChannel@AdvionLCObjects@@QEAA?AW4elmx_error@lmx@@AEBN@Z
    2516  0x5ca60  ?set_bandwidth@c_UVRangeScanMode@AdvionLCObjects@@QEAA?AW4elmx_error@lmx@@AEBN@Z
    2517 0x117d50  ?set_calibrationPath@c_QuantitationType@AdvionObjects@@QEAA?AW4elmx_error@lmx@@AEBV?$basic_string@_WU?$char_traits@_W@std@@V?$allocator@_W@2@@std@@@Z
    2518  0x65b30  ?set_capillaryTemp@c_ionSourceOptimization@AdvionObjects@@QEAA?AW4elmx_error@lmx@@AEBN@Z
    2519  0x65b80  ?set_capillaryVoltage@c_ionSourceOptimization@AdvionObjects@@QEAA?AW4elmx_error@lmx@@AEBN@Z
    2520 0x1313d0  ?set_centroid@c_Peak@AdvionObjects@@QEAA?AW4elmx_error@lmx@@AEBN@Z
    2521   0xb010  ?set_channel@c_UVChannelAnalogOutput@AdvionLCObjects@@QEAA?AW4elmx_error@lmx@@AEBH@Z
    2522  0x6ff90  ?set_closeTimeSeconds@c_RepeatTimeTrigger@AdvionObjects@@QEAA?AW4elmx_error@lmx@@AEBH@Z
    2523  0x5caa0  ?set_columnDescription@c_GradientPumpType@AdvionLCObjects@@QEAA?AW4elmx_error@lmx@@AEBV?$basic_string@_WU?$char_traits@_W@std@@V?$allocator@_W@2@@std@@@Z
    2524  0x19870  ?set_columnIndex@c_AdvionColumnOvenMethodType@AdvionLCObjects@@QEAA?AW4elmx_error@lmx@@AEBH@Z
    2525 0x117d90  ?set_concentration@c_CalibrationAnalyte@AdvionObjects@@QEAA?AW4elmx_error@lmx@@AEBN@Z
    2526 0x117dd0  ?set_concentration@c_SemiQuantStandard@AdvionObjects@@QEAA?AW4elmx_error@lmx@@AEBN@Z
    2527 0x117e10  ?set_concentrationUnits@c_Analyte@AdvionObjects@@QEAA?AW4elmx_error@lmx@@AEBV?$basic_string@_WU?$char_traits@_W@std@@V?$allocator@_W@2@@std@@@Z
    2528 0x117e60  ?set_concentrationUnits@c_SemiQuantSettings@AdvionObjects@@QEAA?AW4elmx_error@lmx@@AEBV?$basic_string@_WU?$char_traits@_W@std@@V?$allocator@_W@2@@std@@@Z
    2529  0x62e20  ?set_coronaDischarge@c_ApciSource@AdvionObjects@@QEAA?AW4elmx_error@lmx@@AEBN@Z
    2530  0x71360  ?set_delay@c_PeakTrigger@AdvionObjects@@QEAA?AW4elmx_error@lmx@@AEBI@Z
    2531   0xd7b0  ?set_delayMS@c_ClosureTriggerIn@AdvionLCObjects@@QEAA?AW4elmx_error@lmx@@AEBI@Z
    2532  0x77070  ?set_delayMS@c_ClosureTriggerIn@AdvionObjects@@QEAA?AW4elmx_error@lmx@@AEBI@Z
    2533  0x6ff40  ?set_delaySeconds@c_RepeatTimeTrigger@AdvionObjects@@QEAA?AW4elmx_error@lmx@@AEBH@Z
    2534 0x117ea0  ?set_delta@c_GraphInfo@AdvionObjects@@QEAA?AW4elmx_error@lmx@@AEB_N@Z
    2535 0x117ef0  ?set_description@c_MethodType@AdvionObjects@@QEAA?AW4elmx_error@lmx@@AEBV?$basic_string@_WU?$char_traits@_W@std@@V?$allocator@_W@2@@std@@@Z
    2536  0x69870  ?set_description@c_ionSourceOptimization@AdvionObjects@@QEAA?AW4elmx_error@lmx@@AEBV?$basic_string@_WU?$char_traits@_W@std@@V?$allocator@_W@2@@std@@@Z
    2537 0x1356b0  ?set_detector@c_CmsTuneParametersType@AdvionObjects@@QEAA?AW4elmx_error@lmx@@AEBN@Z
    2538  0x5caf0  ?set_drawPositionOffset@c_AvantSamplerInjection@AdvionLCObjects@@QEAA?AW4elmx_error@lmx@@AEBN@Z
    2539  0x6bd40  ?set_dwellTime@c_MassOfInterest@AdvionObjects@@QEAA?AW4elmx_error@lmx@@AEBN@Z
    2540  0x19620  ?set_enableAnalysis@c_AdvionColumnOvenMethodType@AdvionLCObjects@@QEAA?AW4elmx_error@lmx@@AEBV?$basic_string@_WU?$char_traits@_W@std@@V?$allocator@_W@2@@std@@@Z
    2541 0x117f30  ?set_enableMultiple@c_BackgroundOptions@AdvionObjects@@QEAA?AW4elmx_error@lmx@@AEB_N@Z
    2542  0x5cb40  ?set_enableValueWashSynchronization@c_AvantSamplerValveWash@AdvionLCObjects@@QEAA?AW4elmx_error@lmx@@AEB_N@Z
    2543 0x117f70  ?set_enabled@c_AnalogInput@AdvionObjects@@QEAA?AW4elmx_error@lmx@@AEB_N@Z
    2544 0x117fb0  ?set_enabled@c_AnalogOutput@AdvionObjects@@QEAA?AW4elmx_error@lmx@@AEB_N@Z
    2545 0x117ff0  ?set_enabled@c_AnalogOutputSmoothing@AdvionObjects@@QEAA?AW4elmx_error@lmx@@AEB_N@Z
    2546  0x5cb80  ?set_enabled@c_AvantSamplerCooling@AdvionLCObjects@@QEAA?AW4elmx_error@lmx@@AEB_N@Z
    2547 0x118030  ?set_enabled@c_BaselineRemoval@AdvionObjects@@QEAA?AW4elmx_error@lmx@@AEB_N@Z
    2548 0x118070  ?set_enabled@c_ClosureOutTrigger@AdvionObjects@@QEAA?AW4elmx_error@lmx@@AEB_N@Z
    2549  0x5cbc0  ?set_enabled@c_ClosureTriggerIn@AdvionLCObjects@@QEAA?AW4elmx_error@lmx@@AEB_N@Z
    2550 0x1180b0  ?set_enabled@c_ClosureTriggerIn@AdvionObjects@@QEAA?AW4elmx_error@lmx@@AEB_N@Z
    2551  0x5cc00  ?set_enabled@c_DiverterValveMethod@AdvionLCObjects@@QEAA?AW4elmx_error@lmx@@AEB_N@Z
    2552  0x5cc40  ?set_enabled@c_UVAnalogOutput@AdvionLCObjects@@QEAA?AW4elmx_error@lmx@@AEB_N@Z
    2553  0x5cc80  ?set_enabled@c_UVChannel@AdvionLCObjects@@QEAA?AW4elmx_error@lmx@@AEB_N@Z
    2554  0x7d470  ?set_end@c_RangeScanMode@AdvionObjects@@QEAA?AW4elmx_error@lmx@@AEBN@Z
    2555 0x126a60  ?set_endIndex@c_IntegrationBaseline@AdvionObjects@@QEAA?AW4elmx_error@lmx@@AEBH@Z
    2556 0x1180f0  ?set_endMass@c_BasePeakChromGraphInfo@AdvionObjects@@QEAA?AW4elmx_error@lmx@@AEBN@Z
    2557 0x118140  ?set_endMass@c_ExtractedAnalogOutput@AdvionObjects@@QEAA?AW4elmx_error@lmx@@AEBN@Z
    2558 0x118190  ?set_endMass@c_ExtractedPeakTrigger@AdvionObjects@@QEAA?AW4elmx_error@lmx@@AEBN@Z
    2559 0x1181e0  ?set_endMass@c_XICChromGraphInfo@AdvionObjects@@QEAA?AW4elmx_error@lmx@@AEBN@Z
    2560 0x118230  ?set_endRetentionTime@c_SpectrumGraphInfo@AdvionObjects@@QEAA?AW4elmx_error@lmx@@AEBN@Z
    2561 0x118280  ?set_endTime@c_BackgroundSpectrum@AdvionObjects@@QEAA?AW4elmx_error@lmx@@AEBN@Z
    2562  0x6abc0  ?set_endTime@c_DeltaBackgroundParameters@AdvionObjects@@QEAA?AW4elmx_error@lmx@@AEBN@Z
    2563  0x5ccc0  ?set_endWavelength@c_UVRangeScanMode@AdvionLCObjects@@QEAA?AW4elmx_error@lmx@@AEBN@Z
    2564 0x1182c0  ?set_endX@c_GraphInfo@AdvionObjects@@QEAA?AW4elmx_error@lmx@@AEBN@Z
    2565 0x131410  ?set_endX@c_IntegrationBaseline@AdvionObjects@@QEAA?AW4elmx_error@lmx@@AEBN@Z
    2566 0x131450  ?set_endY@c_IntegrationBaseline@AdvionObjects@@QEAA?AW4elmx_error@lmx@@AEBN@Z
    2567  0x5cd00  ?set_equilibrationTime@c_GradientPumpType@AdvionLCObjects@@QEAA?AW4elmx_error@lmx@@AEBN@Z
    2568 0x129150  ?set_error@c_peakList@AdvionObjects@@QEAA?AW4elmx_error@lmx@@AEBV?$basic_string@_WU?$char_traits@_W@std@@V?$allocator@_W@2@@std@@@Z
    2569 0x118300  ?set_estimateWidth@c_GlobalPeakDetection@AdvionObjects@@QEAA?AW4elmx_error@lmx@@AEB_N@Z
    2570 0x118340  ?set_excludeNoise@c_GlobalPeakDetection@AdvionObjects@@QEAA?AW4elmx_error@lmx@@AEB_N@Z
    2571 0x135430  ?set_extractionElectrode@c_CmsTuneParametersType@AdvionObjects@@QEAA?AW4elmx_error@lmx@@AEBN@Z
    2572  0x5cd50  ?set_filterTimeConstant@c_AdvionUVMethodType@AdvionLCObjects@@QEAA?AW4elmx_error@lmx@@AEBN@Z
    2573  0x5cd90  ?set_firmwareVersion@c_uvDetectorDeviceInfo@AdvionLCObjects@@QEAA?AW4elmx_error@lmx@@AEBV?$basic_string@_WU?$char_traits@_W@std@@V?$allocator@_W@2@@std@@@Z
    2574  0x8b450  ?set_fitType@c_AnalyteSettings@AdvionObjects@@QEAA?AW4elmx_error@lmx@@AEBV?$basic_string@_WU?$char_traits@_W@std@@V?$allocator@_W@2@@std@@@Z
    2575  0x5cde0  ?set_flowRateMlPerMin@c_GradientMethod@AdvionLCObjects@@QEAA?AW4elmx_error@lmx@@AEBN@Z
    2576  0x5ce20  ?set_flowRateMlPerMin@c_GradientPumpType@AdvionLCObjects@@QEAA?AW4elmx_error@lmx@@AEBN@Z
    2577   0xec50  ?set_flushVolume@c_AvantSamplerInjection@AdvionLCObjects@@QEAA?AW4elmx_error@lmx@@AEBH@Z
    2578  0x63b20  ?set_gasTemperature@c_EsiSource@AdvionObjects@@QEAA?AW4elmx_error@lmx@@AEBN@Z
    2579 0x118380  ?set_gradient@c_PeakTrigger@AdvionObjects@@QEAA?AW4elmx_error@lmx@@AEBN@Z
    2580  0x5ce60  ?set_hasUVLamp@c_uvDetectorDeviceInfo@AdvionLCObjects@@QEAA?AW4elmx_error@lmx@@AEB_N@Z
    2581  0x5ceb0  ?set_hasVisibleLamp@c_uvDetectorDeviceInfo@AdvionLCObjects@@QEAA?AW4elmx_error@lmx@@AEB_N@Z
    2582  0x7aa90  ?set_height@c_IntegrationPoint@AdvionObjects@@QEAA?AW4elmx_error@lmx@@AEBV?$basic_string@_WU?$char_traits@_W@std@@V?$allocator@_W@2@@std@@@Z
    2583 0x131490  ?set_heightAboveBaseline@c_Peak@AdvionObjects@@QEAA?AW4elmx_error@lmx@@AEBN@Z
    2584 0x135480  ?set_hexapoleBias@c_CmsTuneParametersType@AdvionObjects@@QEAA?AW4elmx_error@lmx@@AEBN@Z
    2585 0x1354d0  ?set_hexapoleRF@c_CmsTuneParametersType@AdvionObjects@@QEAA?AW4elmx_error@lmx@@AEBN@Z
    2586 0x135520  ?set_hexapoleRFDynamic@c_CmsTuneParametersType@AdvionObjects@@QEAA?AW4elmx_error@lmx@@AEBN@Z
    2587 0x1183c0  ?set_id@c_Analyte@AdvionObjects@@QEAA?AW4elmx_error@lmx@@AEBV?$basic_string@_WU?$char_traits@_W@std@@V?$allocator@_W@2@@std@@@Z
    2588 0x118400  ?set_id@c_AnalyteSettings@AdvionObjects@@QEAA?AW4elmx_error@lmx@@AEBV?$basic_string@_WU?$char_traits@_W@std@@V?$allocator@_W@2@@std@@@Z
    2589 0x118440  ?set_id@c_CalibrationStandard@AdvionObjects@@QEAA?AW4elmx_error@lmx@@AEBV?$basic_string@_WU?$char_traits@_W@std@@V?$allocator@_W@2@@std@@@Z
    2590 0x118480  ?set_id@c_QuantScanMode@AdvionObjects@@QEAA?AW4elmx_error@lmx@@AEBV?$basic_string@_WU?$char_traits@_W@std@@V?$allocator@_W@2@@std@@@Z
    2591  0x96c60  ?set_index@c_ScalarChannelChromGraphInfo@AdvionObjects@@QEAA?AW4elmx_error@lmx@@AEBI@Z
    2592   0xbd50  ?set_initialValvePosition@c_DiverterValveMethod@AdvionLCObjects@@QEAA?AW4elmx_error@lmx@@AEBV?$basic_string@_WU?$char_traits@_W@std@@V?$allocator@_W@2@@std@@@Z
    2593   0xeca0  ?set_injectionMode@c_AvantSamplerInjection@AdvionLCObjects@@QEAA?AW4elmx_error@lmx@@AEBV?$basic_string@_WU?$char_traits@_W@std@@V?$allocator@_W@2@@std@@@Z
    2594   0xec00  ?set_injectionVolume@c_AvantSamplerInjection@AdvionLCObjects@@QEAA?AW4elmx_error@lmx@@AEBH@Z
    2595  0x9ebf0  ?set_instrumentType@c_QuantitationType@AdvionObjects@@QEAA?AW4elmx_error@lmx@@AEBV?$basic_string@_WU?$char_traits@_W@std@@V?$allocator@_W@2@@std@@@Z
    2596 0x1184c0  ?set_intensity@c_SemiQuantStandard@AdvionObjects@@QEAA?AW4elmx_error@lmx@@_KAEBN@Z
    2597  0x9ad40  ?set_intensityMetric@c_Analyte@AdvionObjects@@QEAA?AW4elmx_error@lmx@@AEBV?$basic_string@_WU?$char_traits@_W@std@@V?$allocator@_W@2@@std@@@Z
    2598 0x141d80  ?set_intercept@c_calibrationSegment@AdvionObjects@@QEAA?AW4elmx_error@lmx@@AEBN@Z
    2599 0x118510  ?set_internalStandardId@c_AnalyteSettings@AdvionObjects@@QEAA?AW4elmx_error@lmx@@AEBV?$basic_string@_WU?$char_traits@_W@std@@V?$allocator@_W@2@@std@@@Z
    2600 0x135570  ?set_ionEnergy@c_CmsTuneParametersType@AdvionObjects@@QEAA?AW4elmx_error@lmx@@AEBN@Z
    2601 0x1355c0  ?set_ionEnergyDynamic@c_CmsTuneParametersType@AdvionObjects@@QEAA?AW4elmx_error@lmx@@AEBN@Z
    2602 0x118560  ?set_isFullRetentionTime@c_ParentChromGraphInfo@AdvionObjects@@QEAA?AW4elmx_error@lmx@@AEB_N@Z
    2603 0x1185b0  ?set_isFullRetentionTime@c_SpectrumGraphInfo@AdvionObjects@@QEAA?AW4elmx_error@lmx@@AEB_N@Z
    2604 0x118600  ?set_isStacked@c_GraphInfo@AdvionObjects@@QEAA?AW4elmx_error@lmx@@AEB_N@Z
    2605 0x118640  ?set_isStick@c_SpectrumGraphInfo@AdvionObjects@@QEAA?AW4elmx_error@lmx@@AEB_N@Z
    2606 0x118690  ?set_isotopeDilution@c_QuantitationType@AdvionObjects@@QEAA?AW4elmx_error@lmx@@AEB_N@Z
    2607 0x1186d0  ?set_isotopeRatio@c_QuantitationType@AdvionObjects@@QEAA?AW4elmx_error@lmx@@AEB_N@Z
    2608  0x6ce00  ?set_iterations@c_Smoothing@AdvionObjects@@QEAA?AW4elmx_error@lmx@@AEBE@Z
    2609   0xd760  ?set_line@c_ClosureTriggerIn@AdvionLCObjects@@QEAA?AW4elmx_error@lmx@@AEBE@Z
    2610  0x77020  ?set_line@c_ClosureTriggerIn@AdvionObjects@@QEAA?AW4elmx_error@lmx@@AEBE@Z
    2611  0x87b90  ?set_line@c_ContactClosureOut@AdvionObjects@@QEAA?AW4elmx_error@lmx@@AEBE@Z
    2612 0x118710  ?set_manualHeight@c_IntegrationPoint@AdvionObjects@@QEAA?AW4elmx_error@lmx@@AEBN@Z
    2613  0x9aa00  ?set_mass@c_Analyte@AdvionObjects@@QEAA?AW4elmx_error@lmx@@AEBN@Z
    2614  0x6bca0  ?set_mass@c_MassOfInterest@AdvionObjects@@QEAA?AW4elmx_error@lmx@@AEBN@Z
    2615  0x99c30  ?set_mass@c_additionalMasses@c_Analyte@AdvionObjects@@QEAA?AW4elmx_error@lmx@@_KAEBN@Z
    2616  0x78740  ?set_massNumber@c_SemiQuantIsotope@AdvionObjects@@QEAA?AW4elmx_error@lmx@@AEBI@Z
    2617  0x9aa50  ?set_massSpan@c_Analyte@AdvionObjects@@QEAA?AW4elmx_error@lmx@@AEBN@Z
    2618  0x5cf00  ?set_maxBandwidth@c_uvDetectorDeviceInfo@AdvionLCObjects@@QEAA?AW4elmx_error@lmx@@AEBN@Z
    2619 0x118750  ?set_maxIntensity@c_AnalogInput@AdvionObjects@@QEAA?AW4elmx_error@lmx@@AEBN@Z
    2620 0x118790  ?set_maxIntensity@c_AnalogOutput@AdvionObjects@@QEAA?AW4elmx_error@lmx@@AEBN@Z
    2621 0x141dc0  ?set_maxMass@c_calibrationSegment@AdvionObjects@@QEAA?AW4elmx_error@lmx@@AEBN@Z
    2622  0x13fa0  ?set_maxNumChannels@c_uvDetectorDeviceInfo@AdvionLCObjects@@QEAA?AW4elmx_error@lmx@@AEBH@Z
    2623  0x5cf50  ?set_maxPressurePsi@c_GradientPumpType@AdvionLCObjects@@QEAA?AW4elmx_error@lmx@@AEBN@Z
    2624  0x5cf90  ?set_maxRefBandwidth@c_uvDetectorDeviceInfo@AdvionLCObjects@@QEAA?AW4elmx_error@lmx@@AEBN@Z
    2625  0x6d950  ?set_maxVoltage@c_AnalogInput@AdvionObjects@@QEAA?AW4elmx_error@lmx@@AEBV?$basic_string@_WU?$char_traits@_W@std@@V?$allocator@_W@2@@std@@@Z
    2626  0x81db0  ?set_maxVoltage@c_AnalogOutput@AdvionObjects@@QEAA?AW4elmx_error@lmx@@AEBE@Z
    2627  0x5cfe0  ?set_maxWavelength@c_uvDetectorDeviceInfo@AdvionLCObjects@@QEAA?AW4elmx_error@lmx@@AEBN@Z
    2628 0x1187d0  ?set_maxWidth@c_GlobalPeakDetection@AdvionObjects@@QEAA?AW4elmx_error@lmx@@AEBN@Z
    2629 0x127a60  ?set_maximumIndex@c_Peak@AdvionObjects@@QEAA?AW4elmx_error@lmx@@AEBH@Z
    2630 0x1314d0  ?set_maximumX@c_Peak@AdvionObjects@@QEAA?AW4elmx_error@lmx@@AEBN@Z
    2631 0x131510  ?set_maximumY@c_Peak@AdvionObjects@@QEAA?AW4elmx_error@lmx@@AEBN@Z
    2632  0x5d030  ?set_minBandwidth@c_uvDetectorDeviceInfo@AdvionLCObjects@@QEAA?AW4elmx_error@lmx@@AEBN@Z
    2633 0x141e00  ?set_minMass@c_calibrationSegment@AdvionObjects@@QEAA?AW4elmx_error@lmx@@AEBN@Z
    2634  0x5d080  ?set_minPressurePsi@c_GradientPumpType@AdvionLCObjects@@QEAA?AW4elmx_error@lmx@@AEBN@Z
    2635  0x5d0c0  ?set_minWavelength@c_uvDetectorDeviceInfo@AdvionLCObjects@@QEAA?AW4elmx_error@lmx@@AEBN@Z
    2636  0x6ac60  ?set_minWidth@c_DeltaBackgroundParameters@AdvionObjects@@QEAA?AW4elmx_error@lmx@@AEBN@Z
    2637  0x5d110  ?set_modelNumber@c_uvDetectorDeviceInfo@AdvionLCObjects@@QEAA?AW4elmx_error@lmx@@AEBV?$basic_string@_WU?$char_traits@_W@std@@V?$allocator@_W@2@@std@@@Z
    2638 0x118810  ?set_name@c_AdditionalInfo@AdvionObjects@@QEAA?AW4elmx_error@lmx@@AEBV?$basic_string@_WU?$char_traits@_W@std@@V?$allocator@_W@2@@std@@@Z
    2639 0x118850  ?set_name@c_AnalogInput@AdvionObjects@@QEAA?AW4elmx_error@lmx@@AEBV?$basic_string@_WU?$char_traits@_W@std@@V?$allocator@_W@2@@std@@@Z
    2640 0x118890  ?set_name@c_Analyte@AdvionObjects@@QEAA?AW4elmx_error@lmx@@AEBV?$basic_string@_WU?$char_traits@_W@std@@V?$allocator@_W@2@@std@@@Z
    2641  0x5d150  ?set_needleHeight@c_AvantSamplerInjection@AdvionLCObjects@@QEAA?AW4elmx_error@lmx@@AEBN@Z
    2642  0x698c0  ?set_negative@c_ionSourceOptimization@AdvionObjects@@QEAA?AW4elmx_error@lmx@@AEB_N@Z
    2643  0x6acb0  ?set_noiseOffset@c_DeltaBackgroundParameters@AdvionObjects@@QEAA?AW4elmx_error@lmx@@AEBI@Z
    2644  0x8e4d0  ?set_numPeakLabels@c_GlobalPeakDetection@AdvionObjects@@QEAA?AW4elmx_error@lmx@@AEBH@Z
    2645  0x5d1a0  ?set_offset@c_UVChannelAnalogOutput@AdvionLCObjects@@QEAA?AW4elmx_error@lmx@@AEBN@Z
    2646  0x5d1e0  ?set_onLowToHigh@c_ClosureTriggerIn@AdvionLCObjects@@QEAA?AW4elmx_error@lmx@@AEB_N@Z
    2647 0x1188d0  ?set_onLowToHigh@c_ClosureTriggerIn@AdvionObjects@@QEAA?AW4elmx_error@lmx@@AEB_N@Z
    2648  0x6ffe0  ?set_openTimeSeconds@c_RepeatTimeTrigger@AdvionObjects@@QEAA?AW4elmx_error@lmx@@AEBH@Z
    2649  0x1eca0  ?set_pumpASolvent@c_GradientPumpType@AdvionLCObjects@@QEAA?AW4elmx_error@lmx@@AEBV?$basic_string@_WU?$char_traits@_W@std@@V?$allocator@_W@2@@std@@@Z
    2650  0x1ee70  ?set_pumpBSolvent@c_GradientPumpType@AdvionLCObjects@@QEAA?AW4elmx_error@lmx@@AEBV?$basic_string@_WU?$char_traits@_W@std@@V?$allocator@_W@2@@std@@@Z
    2651  0x11f40  ?set_pumpFractionB@c_AvantSamplerValveWash@AdvionLCObjects@@QEAA?AW4elmx_error@lmx@@AEBH@Z
    2652 0x118910  ?set_qcOnly@c_QuantitationType@AdvionObjects@@QEAA?AW4elmx_error@lmx@@AEB_N@Z
    2653 0x118950  ?set_quantitation@c_QuantitationType@AdvionObjects@@QEAA?AW4elmx_error@lmx@@AEB_N@Z
    2654  0x6cdb0  ?set_radius@c_Smoothing@AdvionObjects@@QEAA?AW4elmx_error@lmx@@AEBE@Z
    2655  0x5d220  ?set_ratio@c_UVChannelAnalogOutput@AdvionLCObjects@@QEAA?AW4elmx_error@lmx@@AEBN@Z
    2656  0x5d260  ?set_refBandwidth@c_UVChannel@AdvionLCObjects@@QEAA?AW4elmx_error@lmx@@AEBN@Z
    2657  0x5d2a0  ?set_refBandwidth@c_UVRangeScanMode@AdvionLCObjects@@QEAA?AW4elmx_error@lmx@@AEBN@Z
    2658  0x5d2e0  ?set_refEnabled@c_UVChannel@AdvionLCObjects@@QEAA?AW4elmx_error@lmx@@AEB_N@Z
    2659  0x5d320  ?set_refEnabled@c_UVRangeScanMode@AdvionLCObjects@@QEAA?AW4elmx_error@lmx@@AEB_N@Z
    2660  0x5d360  ?set_refWavelength@c_UVChannel@AdvionLCObjects@@QEAA?AW4elmx_error@lmx@@AEBN@Z
    2661  0x5d3a0  ?set_refWavelength@c_UVRangeScanMode@AdvionLCObjects@@QEAA?AW4elmx_error@lmx@@AEBN@Z
    2662 0x118990  ?set_referenceAnalyteId@c_AnalyteSettings@AdvionObjects@@QEAA?AW4elmx_error@lmx@@AEBV?$basic_string@_WU?$char_traits@_W@std@@V?$allocator@_W@2@@std@@@Z
    2663  0x78790  ?set_relativeAtomicMass@c_SemiQuantIsotope@AdvionObjects@@QEAA?AW4elmx_error@lmx@@AEBN@Z
    2664 0x1189d0  ?set_removeFromChromatograms@c_BackgroundOptions@AdvionObjects@@QEAA?AW4elmx_error@lmx@@AEB_N@Z
    2665 0x118a10  ?set_removeFromSpectra@c_BackgroundOptions@AdvionObjects@@QEAA?AW4elmx_error@lmx@@AEB_N@Z
    2666 0x118a50  ?set_removeNoise@c_MethodType@AdvionObjects@@QEAA?AW4elmx_error@lmx@@AEB_N@Z
    2667 0x135660  ?set_resolutionGain@c_CmsTuneParametersType@AdvionObjects@@QEAA?AW4elmx_error@lmx@@AEBN@Z
    2668 0x135610  ?set_resolutionOffset@c_CmsTuneParametersType@AdvionObjects@@QEAA?AW4elmx_error@lmx@@AEBN@Z
    2669 0x118a90  ?set_retentionTime@c_Analyte@AdvionObjects@@QEAA?AW4elmx_error@lmx@@AEBN@Z
    2670  0x7a8c0  ?set_retentionTime@c_IntegrationPoint@AdvionObjects@@QEAA?AW4elmx_error@lmx@@AEBV?$basic_string@_WU?$char_traits@_W@std@@V?$allocator@_W@2@@std@@@Z
    2671 0x118ae0  ?set_retentionTimeSpan@c_Analyte@AdvionObjects@@QEAA?AW4elmx_error@lmx@@AEBN@Z
    2672  0xa0b80  ?set_runTime@c_MethodType@AdvionObjects@@QEAA?AW4elmx_error@lmx@@AEBI@Z
    2673  0x8b3b0  ?set_sampleListFileIndex@c_AnalyteSettings@AdvionObjects@@QEAA?AW4elmx_error@lmx@@AEBH@Z
    2674  0x79580  ?set_sampleListFileIndex@c_QuantScanMode@AdvionObjects@@QEAA?AW4elmx_error@lmx@@AEBH@Z
    2675   0xeed0  ?set_sampleSpeed@c_AvantSamplerInjection@AdvionLCObjects@@QEAA?AW4elmx_error@lmx@@AEBV?$basic_string@_WU?$char_traits@_W@std@@V?$allocator@_W@2@@std@@@Z
    2676  0x6bd90  ?set_scanDelay@c_MassOfInterest@AdvionObjects@@QEAA?AW4elmx_error@lmx@@AEBN@Z
    2677  0x7d510  ?set_scanDelay@c_RangeScanMode@AdvionObjects@@QEAA?AW4elmx_error@lmx@@AEBN@Z
    2678 0x118b30  ?set_scanModeId@c_AnalyteSettings@AdvionObjects@@QEAA?AW4elmx_error@lmx@@AEBV?$basic_string@_WU?$char_traits@_W@std@@V?$allocator@_W@2@@std@@@Z
    2679  0x81fc0  ?set_scanModeIndex@c_AnalogOutput@AdvionObjects@@QEAA?AW4elmx_error@lmx@@AEBI@Z
    2680  0x71570  ?set_scanModeIndex@c_PeakTrigger@AdvionObjects@@QEAA?AW4elmx_error@lmx@@AEBI@Z
    2681  0x79350  ?set_scanModeType@c_QuantScanMode@AdvionObjects@@QEAA?AW4elmx_error@lmx@@AEBV?$basic_string@_WU?$char_traits@_W@std@@V?$allocator@_W@2@@std@@@Z
    2682  0x5d3e0  ?set_scanRate@c_UVScanMode@AdvionLCObjects@@QEAA?AW4elmx_error@lmx@@AEBN@Z
    2683 0x1339d0  ?set_scanSpeed@c_speedCalibration@AdvionObjects@@QEAA?AW4elmx_error@lmx@@AEBN@Z
    2684  0x7d4c0  ?set_scanTime@c_RangeScanMode@AdvionObjects@@QEAA?AW4elmx_error@lmx@@AEBN@Z
    2685  0x6f3f0  ?set_seconds@c_TimeTrigger@AdvionObjects@@QEAA?AW4elmx_error@lmx@@AEBH@Z
    2686  0x5d420  ?set_serialNumber@c_uvDetectorDeviceInfo@AdvionLCObjects@@QEAA?AW4elmx_error@lmx@@AEBV?$basic_string@_WU?$char_traits@_W@std@@V?$allocator@_W@2@@std@@@Z
    2687  0x113f0  ?set_setpoint@c_AvantSamplerCooling@AdvionLCObjects@@QEAA?AW4elmx_error@lmx@@AEBE@Z
    2688 0x118b70  ?set_sigma@c_GlobalPeakDetection@AdvionObjects@@QEAA?AW4elmx_error@lmx@@AEBN@Z
    2689  0x852b0  ?set_simIndex@c_SIMAnalogOutput@AdvionObjects@@QEAA?AW4elmx_error@lmx@@AEBI@Z
    2690  0x74880  ?set_simIndex@c_SIMPeakTrigger@AdvionObjects@@QEAA?AW4elmx_error@lmx@@AEBI@Z
    2691 0x141e40  ?set_slope@c_calibrationSegment@AdvionObjects@@QEAA?AW4elmx_error@lmx@@AEBN@Z
    2692  0x5d460  ?set_solventADescription@c_GradientPumpType@AdvionLCObjects@@QEAA?AW4elmx_error@lmx@@AEBV?$basic_string@_WU?$char_traits@_W@std@@V?$allocator@_W@2@@std@@@Z
    2693  0x5d4a0  ?set_solventB@c_GradientMethod@AdvionLCObjects@@QEAA?AW4elmx_error@lmx@@AEBN@Z
    2694  0x5d4e0  ?set_solventB@c_GradientPumpType@AdvionLCObjects@@QEAA?AW4elmx_error@lmx@@AEBN@Z
    2695  0x5d520  ?set_solventBDescription@c_GradientPumpType@AdvionLCObjects@@QEAA?AW4elmx_error@lmx@@AEBV?$basic_string@_WU?$char_traits@_W@std@@V?$allocator@_W@2@@std@@@Z
    2696  0x81e00  ?set_source@c_AnalogOutput@AdvionObjects@@QEAA?AW4elmx_error@lmx@@AEBV?$basic_string@_WU?$char_traits@_W@std@@V?$allocator@_W@2@@std@@@Z
    2697  0x713b0  ?set_source@c_PeakTrigger@AdvionObjects@@QEAA?AW4elmx_error@lmx@@AEBV?$basic_string@_WU?$char_traits@_W@std@@V?$allocator@_W@2@@std@@@Z
    2698  0x65bd0  ?set_sourceVoltage@c_ionSourceOptimization@AdvionObjects@@QEAA?AW4elmx_error@lmx@@AEBN@Z
    2699  0x65c60  ?set_sourceVoltageDynamic@c_ionSourceOptimization@AdvionObjects@@QEAA?AW4elmx_error@lmx@@AEBN@Z
    2700  0x6bf00  ?set_sourceVoltageOffset@c_MassOfInterest@AdvionObjects@@QEAA?AW4elmx_error@lmx@@AEBN@Z
    2701  0x6bcf0  ?set_span@c_MassOfInterest@AdvionObjects@@QEAA?AW4elmx_error@lmx@@AEBN@Z
    2702 0x118bb0  ?set_span@c_TimeBaselineRemoval@AdvionObjects@@QEAA?AW4elmx_error@lmx@@AEBN@Z
    2703 0x118bf0  ?set_standardAddition@c_QuantitationType@AdvionObjects@@QEAA?AW4elmx_error@lmx@@AEB_N@Z
    2704  0x7d420  ?set_start@c_RangeScanMode@AdvionObjects@@QEAA?AW4elmx_error@lmx@@AEBN@Z
    2705 0x126a10  ?set_startIndex@c_IntegrationBaseline@AdvionObjects@@QEAA?AW4elmx_error@lmx@@AEBH@Z
    2706 0x118c30  ?set_startMass@c_BasePeakChromGraphInfo@AdvionObjects@@QEAA?AW4elmx_error@lmx@@AEBN@Z
    2707 0x118c80  ?set_startMass@c_ExtractedAnalogOutput@AdvionObjects@@QEAA?AW4elmx_error@lmx@@AEBN@Z
    2708 0x118cd0  ?set_startMass@c_ExtractedPeakTrigger@AdvionObjects@@QEAA?AW4elmx_error@lmx@@AEBN@Z
    2709 0x118d20  ?set_startMass@c_XICChromGraphInfo@AdvionObjects@@QEAA?AW4elmx_error@lmx@@AEBN@Z
    2710 0x118d70  ?set_startRetentionTime@c_IntegrationPoint@AdvionObjects@@QEAA?AW4elmx_error@lmx@@AEBN@Z
    2711 0x118db0  ?set_startRetentionTime@c_SpectrumGraphInfo@AdvionObjects@@QEAA?AW4elmx_error@lmx@@AEBN@Z
    2712 0x118e00  ?set_startTime@c_BackgroundSpectrum@AdvionObjects@@QEAA?AW4elmx_error@lmx@@AEBN@Z
    2713  0x6ab70  ?set_startTime@c_DeltaBackgroundParameters@AdvionObjects@@QEAA?AW4elmx_error@lmx@@AEBN@Z
    2714  0x6bde0  ?set_startTime@c_MassOfInterest@AdvionObjects@@QEAA?AW4elmx_error@lmx@@AEBI@Z
    2715  0x5d570  ?set_startWavelength@c_UVRangeScanMode@AdvionLCObjects@@QEAA?AW4elmx_error@lmx@@AEBN@Z
    2716 0x118e40  ?set_startX@c_GraphInfo@AdvionObjects@@QEAA?AW4elmx_error@lmx@@AEBN@Z
    2717 0x131550  ?set_startX@c_IntegrationBaseline@AdvionObjects@@QEAA?AW4elmx_error@lmx@@AEBN@Z
    2718 0x131590  ?set_startY@c_IntegrationBaseline@AdvionObjects@@QEAA?AW4elmx_error@lmx@@AEBN@Z
    2719  0x5d5b0  ?set_stopPumpAtEnd@c_GradientPumpType@AdvionLCObjects@@QEAA?AW4elmx_error@lmx@@AEB_N@Z
    2720  0x6be70  ?set_stopTime@c_MassOfInterest@AdvionObjects@@QEAA?AW4elmx_error@lmx@@AEBI@Z
    2721  0x5d5f0  ?set_supportsMultipleBandwidths@c_uvDetectorDeviceInfo@AdvionLCObjects@@QEAA?AW4elmx_error@lmx@@AEB_N@Z
    2722  0x5d640  ?set_supportsMultipleScanRates@c_uvDetectorDeviceInfo@AdvionLCObjects@@QEAA?AW4elmx_error@lmx@@AEB_N@Z
    2723  0x5d690  ?set_supportsReferenceWavelength@c_uvDetectorDeviceInfo@AdvionLCObjects@@QEAA?AW4elmx_error@lmx@@AEB_N@Z
    2724 0x118e80  ?set_targetRetentionTime@c_GlobalPeakDetection@AdvionObjects@@QEAA?AW4elmx_error@lmx@@AEBN@Z
    2725  0x62dd0  ?set_temperature@c_ApciSource@AdvionObjects@@QEAA?AW4elmx_error@lmx@@AEBN@Z
    2726  0x5d6e0  ?set_temperatureControlled@c_AdvionColumnOvenMethodType@AdvionLCObjects@@QEAA?AW4elmx_error@lmx@@AEB_N@Z
    2727  0x5d720  ?set_temperatureSetpoint@c_AdvionColumnOvenMethodType@AdvionLCObjects@@QEAA?AW4elmx_error@lmx@@AEBN@Z
    2728  0x5d760  ?set_temperatureTolerance@c_AdvionColumnOvenMethodType@AdvionLCObjects@@QEAA?AW4elmx_error@lmx@@AEBN@Z
    2729  0x6ac10  ?set_threshold@c_DeltaBackgroundParameters@AdvionObjects@@QEAA?AW4elmx_error@lmx@@AEBN@Z
    2730 0x118ec0  ?set_threshold@c_GlobalPeakDetection@AdvionObjects@@QEAA?AW4elmx_error@lmx@@AEBN@Z
    2731  0x712c0  ?set_threshold@c_PeakTrigger@AdvionObjects@@QEAA?AW4elmx_error@lmx@@AEBN@Z
    2732 0x118f00  ?set_time@c_TimeBaselineRemoval@AdvionObjects@@QEAA?AW4elmx_error@lmx@@AEBN@Z
    2733 0x118f40  ?set_time@c_TriangleAnalogOutputSmoothing@AdvionObjects@@QEAA?AW4elmx_error@lmx@@AEBN@Z
    2734   0xbed0  ?set_timeEntry@c_DiverterValveMethod@AdvionLCObjects@@QEAA?AW4elmx_error@lmx@@_KAEBN@Z
    2735  0x5d7a0  ?set_timeMin@c_GradientMethod@AdvionLCObjects@@QEAA?AW4elmx_error@lmx@@AEBN@Z
    2736  0x71310  ?set_timePastThreshold@c_PeakTrigger@AdvionObjects@@QEAA?AW4elmx_error@lmx@@AEBI@Z
    2737  0x69900  ?set_transferLineTemperature@c_ApciSource@AdvionObjects@@QEAA?AW4elmx_error@lmx@@AEBN@Z
    2738   0xe810  ?set_trayType@c_AvantSamplerInjection@AdvionLCObjects@@QEAA?AW4elmx_error@lmx@@AEBV?$basic_string@_WU?$char_traits@_W@std@@V?$allocator@_W@2@@std@@@Z
    2739  0x89650  ?set_type@c_CalibrationStandard@AdvionObjects@@QEAA?AW4elmx_error@lmx@@AEBV?$basic_string@_WU?$char_traits@_W@std@@V?$allocator@_W@2@@std@@@Z
    2740  0x5d7e0  ?set_useAirSegment@c_AvantSamplerInjection@AdvionLCObjects@@QEAA?AW4elmx_error@lmx@@AEB_N@Z
    2741 0x118f80  ?set_useDefaultStandards@c_SemiQuantSettings@AdvionObjects@@QEAA?AW4elmx_error@lmx@@AEB_N@Z
    2742 0x118fc0  ?set_useGradient@c_PeakTrigger@AdvionObjects@@QEAA?AW4elmx_error@lmx@@AEB_N@Z
    2743  0x5d830  ?set_useHeadspace@c_AvantSamplerInjection@AdvionLCObjects@@QEAA?AW4elmx_error@lmx@@AEB_N@Z
    2744 0x119000  ?set_useTwoIonSourceOptimizations@c_RangeScanMode@AdvionObjects@@QEAA?AW4elmx_error@lmx@@AEB_N@Z
    2745 0x119040  ?set_userModified@c_GlobalPeakDetection@AdvionObjects@@QEAA?AW4elmx_error@lmx@@AEB_N@Z
    2746  0x69940  ?set_usingHelium@c_DartSource@AdvionObjects@@QEAA?AW4elmx_error@lmx@@AEB_N@Z
    2747  0x5d880  ?set_uvMaxWavelength@c_uvDetectorDeviceInfo@AdvionLCObjects@@QEAA?AW4elmx_error@lmx@@AEBN@Z
    2748 0x119090  ?set_value@c_AdditionalInfo@AdvionObjects@@QEAA?AW4elmx_error@lmx@@AEBV?$basic_string@_WU?$char_traits@_W@std@@V?$allocator@_W@2@@std@@@Z
    2749  0x5d8d0  ?set_version@c_AdvionLCMethod@AdvionLCObjects@@QEAA?AW4elmx_error@lmx@@AEBV?$basic_string@_WU?$char_traits@_W@std@@V?$allocator@_W@2@@std@@@Z
    2750  0x69980  ?set_version@c_ionSourceOptimization@AdvionObjects@@QEAA?AW4elmx_error@lmx@@AEBV?$basic_string@_WU?$char_traits@_W@std@@V?$allocator@_W@2@@std@@@Z
    2751 0x1190d0  ?set_version@c_method@AdvionObjects@@QEAA?AW4elmx_error@lmx@@AEBV?$basic_string@_WU?$char_traits@_W@std@@V?$allocator@_W@2@@std@@@Z
    2752 0x119120  ?set_version@c_peakDetection@AdvionObjects@@QEAA?AW4elmx_error@lmx@@AEBV?$basic_string@_WU?$char_traits@_W@std@@V?$allocator@_W@2@@std@@@Z
    2753 0x1315d0  ?set_version@c_peakList@AdvionObjects@@QEAA?AW4elmx_error@lmx@@AEBV?$basic_string@_WU?$char_traits@_W@std@@V?$allocator@_W@2@@std@@@Z
    2754 0x119160  ?set_version@c_processMethod@AdvionObjects@@QEAA?AW4elmx_error@lmx@@AEBV?$basic_string@_WU?$char_traits@_W@std@@V?$allocator@_W@2@@std@@@Z
    2755 0x125fa0  ?set_version@c_tuneParameters@AdvionObjects@@QEAA?AW4elmx_error@lmx@@AEBV?$basic_string@_WU?$char_traits@_W@std@@V?$allocator@_W@2@@std@@@Z
    2756  0x5d910  ?set_version@c_uvDetectorDeviceInfo@AdvionLCObjects@@QEAA?AW4elmx_error@lmx@@AEBV?$basic_string@_WU?$char_traits@_W@std@@V?$allocator@_W@2@@std@@@Z
    2757  0x5d950  ?set_visMinWavelength@c_uvDetectorDeviceInfo@AdvionLCObjects@@QEAA?AW4elmx_error@lmx@@AEBN@Z
    2758  0x63b70  ?set_voltage@c_EsiSource@AdvionObjects@@QEAA?AW4elmx_error@lmx@@AEBN@Z
    2759  0x10390  ?set_volume@c_AvantSamplerWashLine@AdvionLCObjects@@QEAA?AW4elmx_error@lmx@@AEBH@Z
    2760  0x5d9a0  ?set_waitForLampsReady@c_AdvionUVMethodType@AdvionLCObjects@@QEAA?AW4elmx_error@lmx@@AEB_N@Z
    2761  0x5d9e0  ?set_waitForSetpoint@c_AvantSamplerCooling@AdvionLCObjects@@QEAA?AW4elmx_error@lmx@@AEB_N@Z
    2762  0x103e0  ?set_washSolvent@c_AvantSamplerWashLine@AdvionLCObjects@@QEAA?AW4elmx_error@lmx@@AEBV?$basic_string@_WU?$char_traits@_W@std@@V?$allocator@_W@2@@std@@@Z
    2763  0x5da20  ?set_washValve@c_AvantSamplerWashLine@AdvionLCObjects@@QEAA?AW4elmx_error@lmx@@AEB_N@Z
    2764  0x5da60  ?set_wavelength@c_UVChannel@AdvionLCObjects@@QEAA?AW4elmx_error@lmx@@AEBN@Z
    2765  0x8b6e0  ?set_weighting@c_AnalyteSettings@AdvionObjects@@QEAA?AW4elmx_error@lmx@@AEBV?$basic_string@_WU?$char_traits@_W@std@@V?$allocator@_W@2@@std@@@Z
    2766  0x7c7e0  ?set_width@c_BoxFilter@AdvionObjects@@QEAA?AW4elmx_error@lmx@@AEBH@Z
    2767 0x131610  ?set_widthUsed@c_peakList@AdvionObjects@@QEAA?AW4elmx_error@lmx@@AEBN@Z
    2768  0x19710  ?setenum_enableAnalysis@c_AdvionColumnOvenMethodType@AdvionLCObjects@@QEAA_NW4AdvionLCMethod_enum_enableAnalysis@12@@Z
    2769 0x129240  ?setenum_error@c_peakList@AdvionObjects@@QEAA_NW4PeakList_enum_error@12@@Z
    2770  0x8b580  ?setenum_fitType@c_AnalyteSettings@AdvionObjects@@QEAA_NW4Method_enum_fitType@12@@Z
    2771  0x7ab80  ?setenum_height@c_IntegrationPoint@AdvionObjects@@QEAA_NW4Method_enum_height@12@@Z
    2772   0xbe20  ?setenum_initialValvePosition@c_DiverterValveMethod@AdvionLCObjects@@QEAA_NW4AdvionLCMethod_enum_initialValvePosition@12@@Z
    2773   0xedb0  ?setenum_injectionMode@c_AvantSamplerInjection@AdvionLCObjects@@QEAA_NW4AdvionLCMethod_enum_injectionMode@12@@Z
    2774  0x9ecf0  ?setenum_instrumentType@c_QuantitationType@AdvionObjects@@QEAA_NW4Method_enum_instrumentType@12@@Z
    2775  0x9ae40  ?setenum_intensityMetric@c_Analyte@AdvionObjects@@QEAA_NW4Method_enum_intensityMetric@12@@Z
    2776  0x6da40  ?setenum_maxVoltage@c_AnalogInput@AdvionObjects@@QEAA_NW4Method_enum_maxVoltage@12@@Z
    2777  0x1ed80  ?setenum_pumpASolvent@c_GradientPumpType@AdvionLCObjects@@QEAA_NW4AdvionLCMethod_enum_pumpASolvent@12@@Z
    2778  0x1ef50  ?setenum_pumpBSolvent@c_GradientPumpType@AdvionLCObjects@@QEAA_NW4AdvionLCMethod_enum_pumpBSolvent@12@@Z
    2779  0x7a9b0  ?setenum_retentionTime@c_IntegrationPoint@AdvionObjects@@QEAA_NW4Method_enum_retentionTime@12@@Z
    2780   0xefc0  ?setenum_sampleSpeed@c_AvantSamplerInjection@AdvionLCObjects@@QEAA_NW4AdvionLCMethod_enum_sampleSpeed@12@@Z
    2781  0x79460  ?setenum_scanModeType@c_QuantScanMode@AdvionObjects@@QEAA_NW4Method_enum_scanModeType@12@@Z
    2782  0x81ed0  ?setenum_source@c_AnalogOutput@AdvionObjects@@QEAA_NW4Method_enum_source@12@@Z
    2783  0x71480  ?setenum_source@c_PeakTrigger@AdvionObjects@@QEAA_NW4Method_enum_source@12@@Z
    2784   0xe9b0  ?setenum_trayType@c_AvantSamplerInjection@AdvionLCObjects@@QEAA_NW4AdvionLCMethod_enum_trayType@12@@Z
    2785  0x89780  ?setenum_type@c_CalibrationStandard@AdvionObjects@@QEAA_NW4Method_enum_type@12@@Z
    2786  0x105a0  ?setenum_washSolvent@c_AvantSamplerWashLine@AdvionLCObjects@@QEAA_NW4AdvionLCMethod_enum_washSolvent@12@@Z
    2787  0x8b840  ?setenum_weighting@c_AnalyteSettings@AdvionObjects@@QEAA_NW4Method_enum_weighting@12@@Z
    2788 0x11a160  ?size_additionalInfo@c_MethodType@AdvionObjects@@QEBA_KXZ
    2789  0x5e050  ?size_allowedChannelScanRate@c_uvDetectorDeviceInfo@AdvionLCObjects@@QEBA_KXZ
    2790  0x5e090  ?size_allowedFilterTime@c_uvDetectorDeviceInfo@AdvionLCObjects@@QEBA_KXZ
    2791  0x5e0d0  ?size_allowedSpectrumScanRate@c_uvDetectorDeviceInfo@AdvionLCObjects@@QEBA_KXZ
    2792  0x5e110  ?size_analogOutput@c_AdvionUVMethodType@AdvionLCObjects@@QEBA_KXZ
    2793 0x11a1a0  ?size_analyte@c_QuantitationType@AdvionObjects@@QEBA_KXZ
    2794 0x11a1e0  ?size_appliedFilters@c_GraphInfo@AdvionObjects@@QEBA_KXZ
    2795 0x11a220  ?size_backgroundSpectra@c_BackgroundOptions@AdvionObjects@@QEBA_KXZ
    2796 0x11a260  ?size_backgroundSpectrum@c_GraphInfo@AdvionObjects@@QEBA_KXZ
    2797 0x1261b0  ?size_calibration@c_massCalibration@AdvionObjects@@QEBA_KXZ
    2798 0x11a2a0  ?size_calibrationAnalyte@c_CalibrationStandard@AdvionObjects@@QEBA_KXZ
    2799 0x11a2e0  ?size_calibrationStandard@c_QuantitationType@AdvionObjects@@QEBA_KXZ
    2800  0x5e150  ?size_channel@c_UVChannelScanMode@AdvionLCObjects@@QEBA_KXZ
    2801 0x11a320  ?size_chromInfos@c_processMethod@AdvionObjects@@QEBA_KXZ
    2802 0x11a360  ?size_contactClosure@c_ContactClosuresOut@AdvionObjects@@QEBA_KXZ
    2803 0x11a3a0  ?size_defaultStandard@c_SemiQuantSettings@AdvionObjects@@QEBA_KXZ
    2804 0x11a3e0  ?size_filter@c_AnalyteSettings@AdvionObjects@@QEBA_KXZ
    2805  0x5e190  ?size_gradient@c_GradientPumpType@AdvionLCObjects@@QEBA_KXZ
    2806 0x11a420  ?size_input@c_AnalogInputs@AdvionObjects@@QEBA_KXZ
    2807 0x11a460  ?size_integrationPoint@c_GlobalPeakDetection@AdvionObjects@@QEBA_KXZ
    2808 0x11a4a0  ?size_intensity@c_SemiQuantStandard@AdvionObjects@@QEBA_KXZ
    2809 0x11a4e0  ?size_internalStandard@c_QuantitationType@AdvionObjects@@QEBA_KXZ
    2810 0x11a520  ?size_mass@c_additionalMasses@c_Analyte@AdvionObjects@@QEBA_KXZ
    2811 0x11a560  ?size_massOfInterest@c_SIMScanMode@AdvionObjects@@QEBA_KXZ
    2812 0x11a5a0  ?size_output@c_AnalogOutputs@AdvionObjects@@QEBA_KXZ
    2813 0x131740  ?size_peak@c_peakList@AdvionObjects@@QEBA_KXZ
    2814 0x11a5e0  ?size_peakDetections@c_GraphInfo@AdvionObjects@@QEBA_KXZ
    2815 0x11a620  ?size_scanMode@c_MethodType@AdvionObjects@@QEBA_KXZ
    2816 0x11a660  ?size_scanMode@c_QuantitationType@AdvionObjects@@QEBA_KXZ
    2817 0x1261f0  ?size_segment@c_calibration@AdvionObjects@@QEBA_KXZ
    2818 0x126230  ?size_segment@c_speedCalibration@AdvionObjects@@QEBA_KXZ
    2819 0x11a6a0  ?size_settings@c_Analyte@AdvionObjects@@QEBA_KXZ
    2820 0x11a6e0  ?size_spectrumInfos@c_processMethod@AdvionObjects@@QEBA_KXZ
    2821  0x5e1d0  ?size_timeEntry@c_DiverterValveMethod@AdvionLCObjects@@QEBA_KXZ
    2822  0x5e210  ?size_wash@c_AvantSamplerMethodType@AdvionLCObjects@@QEBA_KXZ
    2823  0x76490  ?swap@c_AdditionalInfo@AdvionObjects@@QEAAXAEAV12@@Z
    2824  0x19450  ?swap@c_AdvionColumnOvenMethodType@AdvionLCObjects@@QEAAXAEAV12@@Z
    2825  0x17270  ?swap@c_AdvionLCMethod@AdvionLCObjects@@QEAAXAEAV12@@Z
    2826  0x160f0  ?swap@c_AdvionLCMethodType@AdvionLCObjects@@QEAAXAEAV12@@Z
    2827  0x1cd80  ?swap@c_AdvionUVMethodType@AdvionLCObjects@@QEAAXAEAV12@@Z
    2828  0x1c340  ?swap@c_AliasMethodType@AdvionLCObjects@@QEAAXAEAV12@@Z
    2829  0x6d830  ?swap@c_AnalogInput@AdvionObjects@@QEAAXAEAV12@@Z
    2830  0x86e60  ?swap@c_AnalogInputs@AdvionObjects@@QEAAXAEAV12@@Z
    2831  0x81990  ?swap@c_AnalogOutput@AdvionObjects@@QEAAXAEAV12@@Z
    2832  0x80460  ?swap@c_AnalogOutputSmoothing@AdvionObjects@@QEAAXAEAV12@@Z
    2833  0x97610  ?swap@c_AnalogOutputs@AdvionObjects@@QEAAXAEAV12@@Z
    2834  0x9a7b0  ?swap@c_Analyte@AdvionObjects@@QEAAXAEAV12@@Z
    2835  0x8b190  ?swap@c_AnalyteSettings@AdvionObjects@@QEAAXAEAV12@@Z
    2836  0x62cc0  ?swap@c_ApciSource@AdvionObjects@@QEAAXAEAV12@@Z
    2837  0x11300  ?swap@c_AvantSamplerCooling@AdvionLCObjects@@QEAAXAEAV12@@Z
    2838   0xe5d0  ?swap@c_AvantSamplerInjection@AdvionLCObjects@@QEAAXAEAV12@@Z
    2839  0x1b2d0  ?swap@c_AvantSamplerMethodType@AdvionLCObjects@@QEAAXAEAV12@@Z
    2840  0x11e70  ?swap@c_AvantSamplerValveWash@AdvionLCObjects@@QEAAXAEAV12@@Z
    2841  0x102a0  ?swap@c_AvantSamplerWashLine@AdvionLCObjects@@QEAAXAEAV12@@Z
    2842  0x8f5f0  ?swap@c_BackgroundOptions@AdvionObjects@@QEAAXAEAV12@@Z
    2843  0x7b790  ?swap@c_BackgroundSpectrum@AdvionObjects@@QEAAXAEAV12@@Z
    2844  0x92d50  ?swap@c_BackgroundSpectrumGraphInfo@AdvionObjects@@QEAAXAEAV12@@Z
    2845  0x96030  ?swap@c_BasePeakChromGraphInfo@AdvionObjects@@QEAAXAEAV12@@Z
    2846  0x7ef20  ?swap@c_BaselineRemoval@AdvionObjects@@QEAAXAEAV12@@Z
    2847  0x7c720  ?swap@c_BoxFilter@AdvionObjects@@QEAAXAEAV12@@Z
    2848  0x77c60  ?swap@c_CalibrationAnalyte@AdvionObjects@@QEAAXAEAV12@@Z
    2849  0x89560  ?swap@c_CalibrationStandard@AdvionObjects@@QEAAXAEAV12@@Z
    2850  0x935f0  ?swap@c_ChromGraphInfo@AdvionObjects@@QEAAXAEAV12@@Z
    2851  0x6e6e0  ?swap@c_ClosureOutTrigger@AdvionObjects@@QEAAXAEAV12@@Z
    2852   0xd640  ?swap@c_ClosureTriggerIn@AdvionLCObjects@@QEAAXAEAV12@@Z
    2853  0x76f00  ?swap@c_ClosureTriggerIn@AdvionObjects@@QEAAXAEAV12@@Z
    2854 0x1351d0  ?swap@c_CmsTuneParametersType@AdvionObjects@@QEAAXAEAV12@@Z
    2855   0x6d40  ?swap@c_ColumnOvenMethod@AdvionLCObjects@@QEAAXAEAV12@@Z
    2856  0x1a730  ?swap@c_ContactClosureIn@AdvionLCObjects@@QEAAXAEAV12@@Z
    2857  0x88a00  ?swap@c_ContactClosureIn@AdvionObjects@@QEAAXAEAV12@@Z
    2858  0x87aa0  ?swap@c_ContactClosureOut@AdvionObjects@@QEAAXAEAV12@@Z
    2859  0x98320  ?swap@c_ContactClosuresOut@AdvionObjects@@QEAAXAEAV12@@Z
    2860  0x64640  ?swap@c_DartSource@AdvionObjects@@QEAAXAEAV12@@Z
    2861  0x6aa20  ?swap@c_DeltaBackgroundParameters@AdvionObjects@@QEAAXAEAV12@@Z
    2862  0x85ca0  ?swap@c_DeltaICAnalogOutput@AdvionObjects@@QEAAXAEAV12@@Z
    2863  0x75270  ?swap@c_DeltaICPeakTrigger@AdvionObjects@@QEAAXAEAV12@@Z
    2864  0x86580  ?swap@c_DeltaXICAnalogOutput@AdvionObjects@@QEAAXAEAV12@@Z
    2865  0x75b50  ?swap@c_DeltaXICPeakTrigger@AdvionObjects@@QEAAXAEAV12@@Z
    2866   0xbc60  ?swap@c_DiverterValveMethod@AdvionLCObjects@@QEAAXAEAV12@@Z
    2867  0x63a30  ?swap@c_EsiSource@AdvionObjects@@QEAAXAEAV12@@Z
    2868  0x83c00  ?swap@c_ExtractedAnalogOutput@AdvionObjects@@QEAAXAEAV12@@Z
    2869  0x731d0  ?swap@c_ExtractedPeakTrigger@AdvionObjects@@QEAAXAEAV12@@Z
    2870  0x7c040  ?swap@c_Filter@AdvionObjects@@QEAAXAEAV12@@Z
    2871  0x8e200  ?swap@c_GlobalPeakDetection@AdvionObjects@@QEAAXAEAV12@@Z
    2872   0xca70  ?swap@c_GradientMethod@AdvionLCObjects@@QEAAXAEAV12@@Z
    2873  0x1e8c0  ?swap@c_GradientPumpType@AdvionLCObjects@@QEAAXAEAV12@@Z
    2874  0x903c0  ?swap@c_GraphInfo@AdvionObjects@@QEAAXAEAV12@@Z
    2875 0x1268a0  ?swap@c_IntegrationBaseline@AdvionObjects@@QEAAXAEAV12@@Z
    2876  0x7a7a0  ?swap@c_IntegrationPoint@AdvionObjects@@QEAAXAEAV12@@Z
    2877  0x62470  ?swap@c_IonSource@AdvionObjects@@QEAAXAEAV12@@Z
    2878  0x6bb00  ?swap@c_MassOfInterest@AdvionObjects@@QEAAXAEAV12@@Z
    2879  0xa0910  ?swap@c_MethodType@AdvionObjects@@QEAAXAEAV12@@Z
    2880  0x94160  ?swap@c_ParentChromGraphInfo@AdvionObjects@@QEAAXAEAV12@@Z
    2881 0x127890  ?swap@c_Peak@AdvionObjects@@QEAAXAEAV12@@Z
    2882  0x79fe0  ?swap@c_PeakDetectionType@AdvionObjects@@QEAAXAEAV12@@Z
    2883  0x70e30  ?swap@c_PeakTrigger@AdvionObjects@@QEAAXAEAV12@@Z
    2884   0x6000  ?swap@c_PumpMethod@AdvionLCObjects@@QEAAXAEAV12@@Z
    2885  0x79260  ?swap@c_QuantScanMode@AdvionObjects@@QEAAXAEAV12@@Z
    2886  0x9e7b0  ?swap@c_QuantitationType@AdvionObjects@@QEAAXAEAV12@@Z
    2887  0x7d290  ?swap@c_RangeScanMode@AdvionObjects@@QEAAXAEAV12@@Z
    2888  0x6fe30  ?swap@c_RepeatTimeTrigger@AdvionObjects@@QEAAXAEAV12@@Z
    2889  0x851f0  ?swap@c_SIMAnalogOutput@AdvionObjects@@QEAAXAEAV12@@Z
    2890  0x747c0  ?swap@c_SIMPeakTrigger@AdvionObjects@@QEAAXAEAV12@@Z
    2891  0x7e4a0  ?swap@c_SIMScanMode@AdvionObjects@@QEAAXAEAV12@@Z
    2892   0x6670  ?swap@c_SamplerMethod@AdvionLCObjects@@QEAAXAEAV12@@Z
    2893  0x96ba0  ?swap@c_ScalarChannelChromGraphInfo@AdvionObjects@@QEAAXAEAV12@@Z
    2894  0x6a1f0  ?swap@c_ScanMode@AdvionObjects@@QEAAXAEAV12@@Z
    2895  0x78600  ?swap@c_SemiQuantIsotope@AdvionObjects@@QEAAXAEAV12@@Z
    2896  0x98f90  ?swap@c_SemiQuantSettings@AdvionObjects@@QEAAXAEAV12@@Z
    2897  0x8a390  ?swap@c_SemiQuantStandard@AdvionObjects@@QEAAXAEAV12@@Z
    2898  0x6cce0  ?swap@c_Smoothing@AdvionObjects@@QEAAXAEAV12@@Z
    2899  0x91ee0  ?swap@c_SpectrumGraphInfo@AdvionObjects@@QEAAXAEAV12@@Z
    2900  0x83290  ?swap@c_TICAnalogOutput@AdvionObjects@@QEAAXAEAV12@@Z
    2901  0x94b50  ?swap@c_TICChromGraphInfo@AdvionObjects@@QEAAXAEAV12@@Z
    2902  0x72860  ?swap@c_TICPeakTrigger@AdvionObjects@@QEAAXAEAV12@@Z
    2903  0x7f8e0  ?swap@c_TimeBaselineRemoval@AdvionObjects@@QEAAXAEAV12@@Z
    2904  0x6f330  ?swap@c_TimeTrigger@AdvionObjects@@QEAAXAEAV12@@Z
    2905  0x80de0  ?swap@c_TriangleAnalogOutputSmoothing@AdvionObjects@@QEAAXAEAV12@@Z
    2906   0xa530  ?swap@c_UVAnalogOutput@AdvionLCObjects@@QEAAXAEAV12@@Z
    2907   0x96b0  ?swap@c_UVChannel@AdvionLCObjects@@QEAAXAEAV12@@Z
    2908   0xaf00  ?swap@c_UVChannelAnalogOutput@AdvionLCObjects@@QEAAXAEAV12@@Z
    2909  0x18550  ?swap@c_UVChannelScanMode@AdvionLCObjects@@QEAAXAEAV12@@Z
    2910   0x73b0  ?swap@c_UVDetectorMethod@AdvionLCObjects@@QEAAXAEAV12@@Z
    2911   0x8590  ?swap@c_UVRangeScanMode@AdvionLCObjects@@QEAAXAEAV12@@Z
    2912   0x7a80  ?swap@c_UVScanMode@AdvionLCObjects@@QEAAXAEAV12@@Z
    2913  0x848c0  ?swap@c_XICAnalogOutput@AdvionObjects@@QEAAXAEAV12@@Z
    2914  0x95480  ?swap@c_XICChromGraphInfo@AdvionObjects@@QEAAXAEAV12@@Z
    2915  0x73e90  ?swap@c_XICPeakTrigger@AdvionObjects@@QEAAXAEAV12@@Z
    2916  0x99b90  ?swap@c_additionalMasses@c_Analyte@AdvionObjects@@QEAAXAEAV123@@Z
    2917 0x132f10  ?swap@c_calibration@AdvionObjects@@QEAAXAEAV12@@Z
    2918 0x132280  ?swap@c_calibrationSegment@AdvionObjects@@QEAAXAEAV12@@Z
    2919  0x65230  ?swap@c_ionSourceOptimization@AdvionObjects@@QEAAXAEAV12@@Z
    2920 0x134590  ?swap@c_massCalibration@AdvionObjects@@QEAAXAEAV12@@Z
    2921  0xa2830  ?swap@c_method@AdvionObjects@@QEAAXAEAV12@@Z
    2922  0x8cc40  ?swap@c_peakDetection@AdvionObjects@@QEAAXAEAV12@@Z
    2923 0x128ad0  ?swap@c_peakList@AdvionObjects@@QEAAXAEAV12@@Z
    2924  0x9c340  ?swap@c_processMethod@AdvionObjects@@QEAAXAEAV12@@Z
    2925 0x133900  ?swap@c_speedCalibration@AdvionObjects@@QEAAXAEAV12@@Z
    2926 0x136ba0  ?swap@c_tuneParameters@AdvionObjects@@QEAAXAEAV12@@Z
    2927  0x12e00  ?swap@c_uvDetectorDeviceInfo@AdvionLCObjects@@QEAAXAEAV12@@Z
    2928  0x76810  ?unmarshal@c_AdditionalInfo@AdvionObjects@@QEAA?AW4elmx_error@lmx@@AEAVc_xml_reader@4@AEBV?$basic_string@DU?$char_traits@D@std@@V?$allocator@D@2@@std@@@Z
    2929  0x19c40  ?unmarshal@c_AdvionColumnOvenMethodType@AdvionLCObjects@@UEAA?AW4elmx_error@lmx@@AEAVc_xml_reader@4@AEBV?$basic_string@DU?$char_traits@D@std@@V?$allocator@D@2@@std@@@Z
    2930  0x17ca0  ?unmarshal@c_AdvionLCMethod@AdvionLCObjects@@QEAA?AW4elmx_error@lmx@@AEAVc_xml_reader@4@@Z
    2931  0x17e70  ?unmarshal@c_AdvionLCMethod@AdvionLCObjects@@QEAA?AW4elmx_error@lmx@@AEAVc_xml_reader@4@AEBV?$basic_string@DU?$char_traits@D@std@@V?$allocator@D@2@@std@@@Z
    2932  0x5fe10  ?unmarshal@c_AdvionLCMethod@AdvionLCObjects@@QEAA?AW4elmx_error@lmx@@AEBV?$basic_string@DU?$char_traits@D@std@@V?$allocator@D@2@@std@@PEAUs_debug_error@4@@Z
    2933  0x17b20  ?unmarshal@c_AdvionLCMethod@AdvionLCObjects@@QEAA?AW4elmx_error@lmx@@AEBVc_any_info@4@PEAUs_debug_error@4@@Z
    2934  0x17ac0  ?unmarshal@c_AdvionLCMethod@AdvionLCObjects@@QEAA?AW4elmx_error@lmx@@PEBD_KPEAUs_debug_error@4@@Z
    2935  0x17a20  ?unmarshal@c_AdvionLCMethod@AdvionLCObjects@@QEAA?AW4elmx_error@lmx@@QEBDPEAUs_debug_error@4@@Z
    2936  0x17a70  ?unmarshal@c_AdvionLCMethod@AdvionLCObjects@@QEAA?AW4elmx_error@lmx@@QEB_WPEAUs_debug_error@4@@Z
    2937  0x163c0  ?unmarshal@c_AdvionLCMethodType@AdvionLCObjects@@QEAA?AW4elmx_error@lmx@@AEAVc_xml_reader@4@AEBV?$basic_string@DU?$char_traits@D@std@@V?$allocator@D@2@@std@@@Z
    2938  0x1d640  ?unmarshal@c_AdvionUVMethodType@AdvionLCObjects@@UEAA?AW4elmx_error@lmx@@AEAVc_xml_reader@4@AEBV?$basic_string@DU?$char_traits@D@std@@V?$allocator@D@2@@std@@@Z
    2939  0x1c680  ?unmarshal@c_AliasMethodType@AdvionLCObjects@@UEAA?AW4elmx_error@lmx@@AEAVc_xml_reader@4@AEBV?$basic_string@DU?$char_traits@D@std@@V?$allocator@D@2@@std@@@Z
    2940  0x6de50  ?unmarshal@c_AnalogInput@AdvionObjects@@QEAA?AW4elmx_error@lmx@@AEAVc_xml_reader@4@AEBV?$basic_string@DU?$char_traits@D@std@@V?$allocator@D@2@@std@@@Z
    2941  0x873b0  ?unmarshal@c_AnalogInputs@AdvionObjects@@QEAA?AW4elmx_error@lmx@@AEAVc_xml_reader@4@AEBV?$basic_string@DU?$char_traits@D@std@@V?$allocator@D@2@@std@@@Z
    2942  0x82410  ?unmarshal@c_AnalogOutput@AdvionObjects@@UEAA?AW4elmx_error@lmx@@AEAVc_xml_reader@4@AEBV?$basic_string@DU?$char_traits@D@std@@V?$allocator@D@2@@std@@@Z
    2943  0x80850  ?unmarshal@c_AnalogOutputSmoothing@AdvionObjects@@UEAA?AW4elmx_error@lmx@@AEAVc_xml_reader@4@AEBV?$basic_string@DU?$char_traits@D@std@@V?$allocator@D@2@@std@@@Z
    2944  0x97b60  ?unmarshal@c_AnalogOutputs@AdvionObjects@@QEAA?AW4elmx_error@lmx@@AEAVc_xml_reader@4@AEBV?$basic_string@DU?$char_traits@D@std@@V?$allocator@D@2@@std@@@Z
    2945  0x9b2d0  ?unmarshal@c_Analyte@AdvionObjects@@QEAA?AW4elmx_error@lmx@@AEAVc_xml_reader@4@AEBV?$basic_string@DU?$char_traits@D@std@@V?$allocator@D@2@@std@@@Z
    2946  0x8bc90  ?unmarshal@c_AnalyteSettings@AdvionObjects@@QEAA?AW4elmx_error@lmx@@AEAVc_xml_reader@4@AEBV?$basic_string@DU?$char_traits@D@std@@V?$allocator@D@2@@std@@@Z
    2947  0x631e0  ?unmarshal@c_ApciSource@AdvionObjects@@UEAA?AW4elmx_error@lmx@@AEAVc_xml_reader@4@AEBV?$basic_string@DU?$char_traits@D@std@@V?$allocator@D@2@@std@@@Z
    2948  0x11730  ?unmarshal@c_AvantSamplerCooling@AdvionLCObjects@@QEAA?AW4elmx_error@lmx@@AEAVc_xml_reader@4@AEBV?$basic_string@DU?$char_traits@D@std@@V?$allocator@D@2@@std@@@Z
    2949   0xf4a0  ?unmarshal@c_AvantSamplerInjection@AdvionLCObjects@@QEAA?AW4elmx_error@lmx@@AEAVc_xml_reader@4@AEBV?$basic_string@DU?$char_traits@D@std@@V?$allocator@D@2@@std@@@Z
    2950  0x1b930  ?unmarshal@c_AvantSamplerMethodType@AdvionLCObjects@@UEAA?AW4elmx_error@lmx@@AEAVc_xml_reader@4@AEBV?$basic_string@DU?$char_traits@D@std@@V?$allocator@D@2@@std@@@Z
    2951  0x12240  ?unmarshal@c_AvantSamplerValveWash@AdvionLCObjects@@QEAA?AW4elmx_error@lmx@@AEAVc_xml_reader@4@AEBV?$basic_string@DU?$char_traits@D@std@@V?$allocator@D@2@@std@@@Z
    2952  0x10ad0  ?unmarshal@c_AvantSamplerWashLine@AdvionLCObjects@@QEAA?AW4elmx_error@lmx@@AEAVc_xml_reader@4@AEBV?$basic_string@DU?$char_traits@D@std@@V?$allocator@D@2@@std@@@Z
    2953  0x8f9e0  ?unmarshal@c_BackgroundOptions@AdvionObjects@@QEAA?AW4elmx_error@lmx@@AEAVc_xml_reader@4@AEBV?$basic_string@DU?$char_traits@D@std@@V?$allocator@D@2@@std@@@Z
    2954  0x7ba90  ?unmarshal@c_BackgroundSpectrum@AdvionObjects@@QEAA?AW4elmx_error@lmx@@AEAVc_xml_reader@4@AEBV?$basic_string@DU?$char_traits@D@std@@V?$allocator@D@2@@std@@@Z
    2955  0x93090  ?unmarshal@c_BackgroundSpectrumGraphInfo@AdvionObjects@@UEAA?AW4elmx_error@lmx@@AEAVc_xml_reader@4@AEBV?$basic_string@DU?$char_traits@D@std@@V?$allocator@D@2@@std@@@Z
    2956  0x96450  ?unmarshal@c_BasePeakChromGraphInfo@AdvionObjects@@UEAA?AW4elmx_error@lmx@@AEAVc_xml_reader@4@AEBV?$basic_string@DU?$char_traits@D@std@@V?$allocator@D@2@@std@@@Z
    2957  0x7f310  ?unmarshal@c_BaselineRemoval@AdvionObjects@@UEAA?AW4elmx_error@lmx@@AEAVc_xml_reader@4@AEBV?$basic_string@DU?$char_traits@D@std@@V?$allocator@D@2@@std@@@Z
    2958  0x7cb20  ?unmarshal@c_BoxFilter@AdvionObjects@@UEAA?AW4elmx_error@lmx@@AEAVc_xml_reader@4@AEBV?$basic_string@DU?$char_traits@D@std@@V?$allocator@D@2@@std@@@Z
    2959  0x77f20  ?unmarshal@c_CalibrationAnalyte@AdvionObjects@@QEAA?AW4elmx_error@lmx@@AEAVc_xml_reader@4@AEBV?$basic_string@DU?$char_traits@D@std@@V?$allocator@D@2@@std@@@Z
    2960  0x89b40  ?unmarshal@c_CalibrationStandard@AdvionObjects@@QEAA?AW4elmx_error@lmx@@AEAVc_xml_reader@4@AEBV?$basic_string@DU?$char_traits@D@std@@V?$allocator@D@2@@std@@@Z
    2961  0x93bb0  ?unmarshal@c_ChromGraphInfo@AdvionObjects@@UEAA?AW4elmx_error@lmx@@AEAVc_xml_reader@4@AEBV?$basic_string@DU?$char_traits@D@std@@V?$allocator@D@2@@std@@@Z
    2962  0x6edb0  ?unmarshal@c_ClosureOutTrigger@AdvionObjects@@UEAA?AW4elmx_error@lmx@@AEAVc_xml_reader@4@AEBV?$basic_string@DU?$char_traits@D@std@@V?$allocator@D@2@@std@@@Z
    2963   0xdb40  ?unmarshal@c_ClosureTriggerIn@AdvionLCObjects@@QEAA?AW4elmx_error@lmx@@AEAVc_xml_reader@4@AEBV?$basic_string@DU?$char_traits@D@std@@V?$allocator@D@2@@std@@@Z
    2964  0x773f0  ?unmarshal@c_ClosureTriggerIn@AdvionObjects@@QEAA?AW4elmx_error@lmx@@AEAVc_xml_reader@4@AEBV?$basic_string@DU?$char_traits@D@std@@V?$allocator@D@2@@std@@@Z
    2965 0x135c30  ?unmarshal@c_CmsTuneParametersType@AdvionObjects@@QEAA?AW4elmx_error@lmx@@AEAVc_xml_reader@4@AEBV?$basic_string@DU?$char_traits@D@std@@V?$allocator@D@2@@std@@@Z
    2966   0x6fd0  ?unmarshal@c_ColumnOvenMethod@AdvionLCObjects@@UEAA?AW4elmx_error@lmx@@AEAVc_xml_reader@4@AEBV?$basic_string@DU?$char_traits@D@std@@V?$allocator@D@2@@std@@@Z
    2967  0x1ab10  ?unmarshal@c_ContactClosureIn@AdvionLCObjects@@QEAA?AW4elmx_error@lmx@@AEAVc_xml_reader@4@AEBV?$basic_string@DU?$char_traits@D@std@@V?$allocator@D@2@@std@@@Z
    2968  0x88dd0  ?unmarshal@c_ContactClosureIn@AdvionObjects@@QEAA?AW4elmx_error@lmx@@AEAVc_xml_reader@4@AEBV?$basic_string@DU?$char_traits@D@std@@V?$allocator@D@2@@std@@@Z
    2969  0x87f20  ?unmarshal@c_ContactClosureOut@AdvionObjects@@QEAA?AW4elmx_error@lmx@@AEAVc_xml_reader@4@AEBV?$basic_string@DU?$char_traits@D@std@@V?$allocator@D@2@@std@@@Z
    2970  0x98870  ?unmarshal@c_ContactClosuresOut@AdvionObjects@@QEAA?AW4elmx_error@lmx@@AEAVc_xml_reader@4@AEBV?$basic_string@DU?$char_traits@D@std@@V?$allocator@D@2@@std@@@Z
    2971  0x649f0  ?unmarshal@c_DartSource@AdvionObjects@@UEAA?AW4elmx_error@lmx@@AEAVc_xml_reader@4@AEBV?$basic_string@DU?$char_traits@D@std@@V?$allocator@D@2@@std@@@Z
    2972  0x6b080  ?unmarshal@c_DeltaBackgroundParameters@AdvionObjects@@QEAA?AW4elmx_error@lmx@@AEAVc_xml_reader@4@AEBV?$basic_string@DU?$char_traits@D@std@@V?$allocator@D@2@@std@@@Z
    2973  0x85fe0  ?unmarshal@c_DeltaICAnalogOutput@AdvionObjects@@UEAA?AW4elmx_error@lmx@@AEAVc_xml_reader@4@AEBV?$basic_string@DU?$char_traits@D@std@@V?$allocator@D@2@@std@@@Z
    2974  0x755b0  ?unmarshal@c_DeltaICPeakTrigger@AdvionObjects@@UEAA?AW4elmx_error@lmx@@AEAVc_xml_reader@4@AEBV?$basic_string@DU?$char_traits@D@std@@V?$allocator@D@2@@std@@@Z
    2975  0x868c0  ?unmarshal@c_DeltaXICAnalogOutput@AdvionObjects@@UEAA?AW4elmx_error@lmx@@AEAVc_xml_reader@4@AEBV?$basic_string@DU?$char_traits@D@std@@V?$allocator@D@2@@std@@@Z
    2976  0x75e90  ?unmarshal@c_DeltaXICPeakTrigger@AdvionObjects@@UEAA?AW4elmx_error@lmx@@AEAVc_xml_reader@4@AEBV?$basic_string@DU?$char_traits@D@std@@V?$allocator@D@2@@std@@@Z
    2977   0xc280  ?unmarshal@c_DiverterValveMethod@AdvionLCObjects@@QEAA?AW4elmx_error@lmx@@AEAVc_xml_reader@4@AEBV?$basic_string@DU?$char_traits@D@std@@V?$allocator@D@2@@std@@@Z
    2978  0x63ef0  ?unmarshal@c_EsiSource@AdvionObjects@@UEAA?AW4elmx_error@lmx@@AEAVc_xml_reader@4@AEBV?$basic_string@DU?$char_traits@D@std@@V?$allocator@D@2@@std@@@Z
    2979  0x84120  ?unmarshal@c_ExtractedAnalogOutput@AdvionObjects@@UEAA?AW4elmx_error@lmx@@AEAVc_xml_reader@4@AEBV?$basic_string@DU?$char_traits@D@std@@V?$allocator@D@2@@std@@@Z
    2980  0x736f0  ?unmarshal@c_ExtractedPeakTrigger@AdvionObjects@@UEAA?AW4elmx_error@lmx@@AEAVc_xml_reader@4@AEBV?$basic_string@DU?$char_traits@D@std@@V?$allocator@D@2@@std@@@Z
    2981  0x7c2d0  ?unmarshal@c_Filter@AdvionObjects@@UEAA?AW4elmx_error@lmx@@AEAVc_xml_reader@4@AEBV?$basic_string@DU?$char_traits@D@std@@V?$allocator@D@2@@std@@@Z
    2982  0x8e900  ?unmarshal@c_GlobalPeakDetection@AdvionObjects@@UEAA?AW4elmx_error@lmx@@AEAVc_xml_reader@4@AEBV?$basic_string@DU?$char_traits@D@std@@V?$allocator@D@2@@std@@@Z
    2983   0xce50  ?unmarshal@c_GradientMethod@AdvionLCObjects@@QEAA?AW4elmx_error@lmx@@AEAVc_xml_reader@4@AEBV?$basic_string@DU?$char_traits@D@std@@V?$allocator@D@2@@std@@@Z
    2984  0x1f500  ?unmarshal@c_GradientPumpType@AdvionLCObjects@@UEAA?AW4elmx_error@lmx@@AEAVc_xml_reader@4@AEBV?$basic_string@DU?$char_traits@D@std@@V?$allocator@D@2@@std@@@Z
    2985  0x90c70  ?unmarshal@c_GraphInfo@AdvionObjects@@UEAA?AW4elmx_error@lmx@@AEAVc_xml_reader@4@AEBV?$basic_string@DU?$char_traits@D@std@@V?$allocator@D@2@@std@@@Z
    2986 0x126df0  ?unmarshal@c_IntegrationBaseline@AdvionObjects@@QEAA?AW4elmx_error@lmx@@AEAVc_xml_reader@4@AEBV?$basic_string@DU?$char_traits@D@std@@V?$allocator@D@2@@std@@@Z
    2987  0x7af10  ?unmarshal@c_IntegrationPoint@AdvionObjects@@QEAA?AW4elmx_error@lmx@@AEAVc_xml_reader@4@AEBV?$basic_string@DU?$char_traits@D@std@@V?$allocator@D@2@@std@@@Z
    2988  0x627e0  ?unmarshal@c_IonSource@AdvionObjects@@UEAA?AW4elmx_error@lmx@@AEAVc_xml_reader@4@AEBV?$basic_string@DU?$char_traits@D@std@@V?$allocator@D@2@@std@@@Z
    2989  0x6c280  ?unmarshal@c_MassOfInterest@AdvionObjects@@QEAA?AW4elmx_error@lmx@@AEAVc_xml_reader@4@AEBV?$basic_string@DU?$char_traits@D@std@@V?$allocator@D@2@@std@@@Z
    2990  0xa1320  ?unmarshal@c_MethodType@AdvionObjects@@QEAA?AW4elmx_error@lmx@@AEAVc_xml_reader@4@AEBV?$basic_string@DU?$char_traits@D@std@@V?$allocator@D@2@@std@@@Z
    2991  0x94510  ?unmarshal@c_ParentChromGraphInfo@AdvionObjects@@UEAA?AW4elmx_error@lmx@@AEAVc_xml_reader@4@AEBV?$basic_string@DU?$char_traits@D@std@@V?$allocator@D@2@@std@@@Z
    2992 0x127eb0  ?unmarshal@c_Peak@AdvionObjects@@QEAA?AW4elmx_error@lmx@@AEAVc_xml_reader@4@AEBV?$basic_string@DU?$char_traits@D@std@@V?$allocator@D@2@@std@@@Z
    2993  0x7a270  ?unmarshal@c_PeakDetectionType@AdvionObjects@@UEAA?AW4elmx_error@lmx@@AEAVc_xml_reader@4@AEBV?$basic_string@DU?$char_traits@D@std@@V?$allocator@D@2@@std@@@Z
    2994  0x71a90  ?unmarshal@c_PeakTrigger@AdvionObjects@@UEAA?AW4elmx_error@lmx@@AEAVc_xml_reader@4@AEBV?$basic_string@DU?$char_traits@D@std@@V?$allocator@D@2@@std@@@Z
    2995   0x6290  ?unmarshal@c_PumpMethod@AdvionLCObjects@@UEAA?AW4elmx_error@lmx@@AEAVc_xml_reader@4@AEBV?$basic_string@DU?$char_traits@D@std@@V?$allocator@D@2@@std@@@Z
    2996  0x79880  ?unmarshal@c_QuantScanMode@AdvionObjects@@QEAA?AW4elmx_error@lmx@@AEAVc_xml_reader@4@AEBV?$basic_string@DU?$char_traits@D@std@@V?$allocator@D@2@@std@@@Z
    2997  0x9f490  ?unmarshal@c_QuantitationType@AdvionObjects@@QEAA?AW4elmx_error@lmx@@AEAVc_xml_reader@4@AEBV?$basic_string@DU?$char_traits@D@std@@V?$allocator@D@2@@std@@@Z
    2998  0x7d9b0  ?unmarshal@c_RangeScanMode@AdvionObjects@@UEAA?AW4elmx_error@lmx@@AEAVc_xml_reader@4@AEBV?$basic_string@DU?$char_traits@D@std@@V?$allocator@D@2@@std@@@Z
    2999  0x703b0  ?unmarshal@c_RepeatTimeTrigger@AdvionObjects@@UEAA?AW4elmx_error@lmx@@AEAVc_xml_reader@4@AEBV?$basic_string@DU?$char_traits@D@std@@V?$allocator@D@2@@std@@@Z
    3000  0x855f0  ?unmarshal@c_SIMAnalogOutput@AdvionObjects@@UEAA?AW4elmx_error@lmx@@AEAVc_xml_reader@4@AEBV?$basic_string@DU?$char_traits@D@std@@V?$allocator@D@2@@std@@@Z
    3001  0x74bc0  ?unmarshal@c_SIMPeakTrigger@AdvionObjects@@UEAA?AW4elmx_error@lmx@@AEAVc_xml_reader@4@AEBV?$basic_string@DU?$char_traits@D@std@@V?$allocator@D@2@@std@@@Z
    3002  0x7e880  ?unmarshal@c_SIMScanMode@AdvionObjects@@UEAA?AW4elmx_error@lmx@@AEAVc_xml_reader@4@AEBV?$basic_string@DU?$char_traits@D@std@@V?$allocator@D@2@@std@@@Z
    3003   0x6960  ?unmarshal@c_SamplerMethod@AdvionLCObjects@@UEAA?AW4elmx_error@lmx@@AEAVc_xml_reader@4@AEBV?$basic_string@DU?$char_traits@D@std@@V?$allocator@D@2@@std@@@Z
    3004  0x96fa0  ?unmarshal@c_ScalarChannelChromGraphInfo@AdvionObjects@@UEAA?AW4elmx_error@lmx@@AEAVc_xml_reader@4@AEBV?$basic_string@DU?$char_traits@D@std@@V?$allocator@D@2@@std@@@Z
    3005  0x6a4e0  ?unmarshal@c_ScanMode@AdvionObjects@@UEAA?AW4elmx_error@lmx@@AEAVc_xml_reader@4@AEBV?$basic_string@DU?$char_traits@D@std@@V?$allocator@D@2@@std@@@Z
    3006  0x78ad0  ?unmarshal@c_SemiQuantIsotope@AdvionObjects@@QEAA?AW4elmx_error@lmx@@AEAVc_xml_reader@4@AEBV?$basic_string@DU?$char_traits@D@std@@V?$allocator@D@2@@std@@@Z
    3007  0x99390  ?unmarshal@c_SemiQuantSettings@AdvionObjects@@QEAA?AW4elmx_error@lmx@@AEAVc_xml_reader@4@AEBV?$basic_string@DU?$char_traits@D@std@@V?$allocator@D@2@@std@@@Z
    3008  0x8a7a0  ?unmarshal@c_SemiQuantStandard@AdvionObjects@@QEAA?AW4elmx_error@lmx@@AEAVc_xml_reader@4@AEBV?$basic_string@DU?$char_traits@D@std@@V?$allocator@D@2@@std@@@Z
    3009  0x6d0f0  ?unmarshal@c_Smoothing@AdvionObjects@@QEAA?AW4elmx_error@lmx@@AEAVc_xml_reader@4@AEBV?$basic_string@DU?$char_traits@D@std@@V?$allocator@D@2@@std@@@Z
    3010  0x924e0  ?unmarshal@c_SpectrumGraphInfo@AdvionObjects@@UEAA?AW4elmx_error@lmx@@AEAVc_xml_reader@4@AEBV?$basic_string@DU?$char_traits@D@std@@V?$allocator@D@2@@std@@@Z
    3011  0x835d0  ?unmarshal@c_TICAnalogOutput@AdvionObjects@@UEAA?AW4elmx_error@lmx@@AEAVc_xml_reader@4@AEBV?$basic_string@DU?$char_traits@D@std@@V?$allocator@D@2@@std@@@Z
    3012  0x94e90  ?unmarshal@c_TICChromGraphInfo@AdvionObjects@@UEAA?AW4elmx_error@lmx@@AEAVc_xml_reader@4@AEBV?$basic_string@DU?$char_traits@D@std@@V?$allocator@D@2@@std@@@Z
    3013  0x72ba0  ?unmarshal@c_TICPeakTrigger@AdvionObjects@@UEAA?AW4elmx_error@lmx@@AEAVc_xml_reader@4@AEBV?$basic_string@DU?$char_traits@D@std@@V?$allocator@D@2@@std@@@Z
    3014  0x7fd00  ?unmarshal@c_TimeBaselineRemoval@AdvionObjects@@UEAA?AW4elmx_error@lmx@@AEAVc_xml_reader@4@AEBV?$basic_string@DU?$char_traits@D@std@@V?$allocator@D@2@@std@@@Z
    3015  0x6f730  ?unmarshal@c_TimeTrigger@AdvionObjects@@UEAA?AW4elmx_error@lmx@@AEAVc_xml_reader@4@AEBV?$basic_string@DU?$char_traits@D@std@@V?$allocator@D@2@@std@@@Z
    3016  0x81190  ?unmarshal@c_TriangleAnalogOutputSmoothing@AdvionObjects@@UEAA?AW4elmx_error@lmx@@AEAVc_xml_reader@4@AEBV?$basic_string@DU?$char_traits@D@std@@V?$allocator@D@2@@std@@@Z
    3017   0xa920  ?unmarshal@c_UVAnalogOutput@AdvionLCObjects@@UEAA?AW4elmx_error@lmx@@AEAVc_xml_reader@4@AEBV?$basic_string@DU?$char_traits@D@std@@V?$allocator@D@2@@std@@@Z
    3018   0x9bd0  ?unmarshal@c_UVChannel@AdvionLCObjects@@QEAA?AW4elmx_error@lmx@@AEAVc_xml_reader@4@AEBV?$basic_string@DU?$char_traits@D@std@@V?$allocator@D@2@@std@@@Z
    3019   0xb3e0  ?unmarshal@c_UVChannelAnalogOutput@AdvionLCObjects@@UEAA?AW4elmx_error@lmx@@AEAVc_xml_reader@4@AEBV?$basic_string@DU?$char_traits@D@std@@V?$allocator@D@2@@std@@@Z
    3020  0x18b60  ?unmarshal@c_UVChannelScanMode@AdvionLCObjects@@UEAA?AW4elmx_error@lmx@@AEAVc_xml_reader@4@AEBV?$basic_string@DU?$char_traits@D@std@@V?$allocator@D@2@@std@@@Z
    3021   0x7640  ?unmarshal@c_UVDetectorMethod@AdvionLCObjects@@UEAA?AW4elmx_error@lmx@@AEAVc_xml_reader@4@AEBV?$basic_string@DU?$char_traits@D@std@@V?$allocator@D@2@@std@@@Z
    3022   0x8b50  ?unmarshal@c_UVRangeScanMode@AdvionLCObjects@@UEAA?AW4elmx_error@lmx@@AEAVc_xml_reader@4@AEBV?$basic_string@DU?$char_traits@D@std@@V?$allocator@D@2@@std@@@Z
    3023   0x7ed0  ?unmarshal@c_UVScanMode@AdvionLCObjects@@UEAA?AW4elmx_error@lmx@@AEAVc_xml_reader@4@AEBV?$basic_string@DU?$char_traits@D@std@@V?$allocator@D@2@@std@@@Z
    3024  0x84c00  ?unmarshal@c_XICAnalogOutput@AdvionObjects@@UEAA?AW4elmx_error@lmx@@AEAVc_xml_reader@4@AEBV?$basic_string@DU?$char_traits@D@std@@V?$allocator@D@2@@std@@@Z
    3025  0x958a0  ?unmarshal@c_XICChromGraphInfo@AdvionObjects@@UEAA?AW4elmx_error@lmx@@AEAVc_xml_reader@4@AEBV?$basic_string@DU?$char_traits@D@std@@V?$allocator@D@2@@std@@@Z
    3026  0x741d0  ?unmarshal@c_XICPeakTrigger@AdvionObjects@@UEAA?AW4elmx_error@lmx@@AEAVc_xml_reader@4@AEBV?$basic_string@DU?$char_traits@D@std@@V?$allocator@D@2@@std@@@Z
    3027  0x99f80  ?unmarshal@c_additionalMasses@c_Analyte@AdvionObjects@@QEAA?AW4elmx_error@lmx@@AEAVc_xml_reader@5@AEBV?$basic_string@DU?$char_traits@D@std@@V?$allocator@D@2@@std@@@Z
    3028 0x133270  ?unmarshal@c_calibration@AdvionObjects@@QEAA?AW4elmx_error@lmx@@AEAVc_xml_reader@4@AEBV?$basic_string@DU?$char_traits@D@std@@V?$allocator@D@2@@std@@@Z
    3029 0x1326d0  ?unmarshal@c_calibrationSegment@AdvionObjects@@QEAA?AW4elmx_error@lmx@@AEAVc_xml_reader@4@AEBV?$basic_string@DU?$char_traits@D@std@@V?$allocator@D@2@@std@@@Z
    3030  0x662b0  ?unmarshal@c_ionSourceOptimization@AdvionObjects@@QEAA?AW4elmx_error@lmx@@AEAVc_xml_reader@4@@Z
    3031  0x66480  ?unmarshal@c_ionSourceOptimization@AdvionObjects@@QEAA?AW4elmx_error@lmx@@AEAVc_xml_reader@4@AEBV?$basic_string@DU?$char_traits@D@std@@V?$allocator@D@2@@std@@@Z
    3032  0x69a10  ?unmarshal@c_ionSourceOptimization@AdvionObjects@@QEAA?AW4elmx_error@lmx@@AEBV?$basic_string@DU?$char_traits@D@std@@V?$allocator@D@2@@std@@PEAUs_debug_error@4@@Z
    3033  0x66130  ?unmarshal@c_ionSourceOptimization@AdvionObjects@@QEAA?AW4elmx_error@lmx@@AEBVc_any_info@4@PEAUs_debug_error@4@@Z
    3034  0x660d0  ?unmarshal@c_ionSourceOptimization@AdvionObjects@@QEAA?AW4elmx_error@lmx@@PEBD_KPEAUs_debug_error@4@@Z
    3035  0x66030  ?unmarshal@c_ionSourceOptimization@AdvionObjects@@QEAA?AW4elmx_error@lmx@@QEBDPEAUs_debug_error@4@@Z
    3036  0x66080  ?unmarshal@c_ionSourceOptimization@AdvionObjects@@QEAA?AW4elmx_error@lmx@@QEB_WPEAUs_debug_error@4@@Z
    3037 0x134900  ?unmarshal@c_massCalibration@AdvionObjects@@QEAA?AW4elmx_error@lmx@@AEAVc_xml_reader@4@AEBV?$basic_string@DU?$char_traits@D@std@@V?$allocator@D@2@@std@@@Z
    3038  0xa3260  ?unmarshal@c_method@AdvionObjects@@QEAA?AW4elmx_error@lmx@@AEAVc_xml_reader@4@@Z
    3039  0xa3430  ?unmarshal@c_method@AdvionObjects@@QEAA?AW4elmx_error@lmx@@AEAVc_xml_reader@4@AEBV?$basic_string@DU?$char_traits@D@std@@V?$allocator@D@2@@std@@@Z
    3040 0x11ca50  ?unmarshal@c_method@AdvionObjects@@QEAA?AW4elmx_error@lmx@@AEBV?$basic_string@DU?$char_traits@D@std@@V?$allocator@D@2@@std@@PEAUs_debug_error@4@@Z
    3041  0xa30e0  ?unmarshal@c_method@AdvionObjects@@QEAA?AW4elmx_error@lmx@@AEBVc_any_info@4@PEAUs_debug_error@4@@Z
    3042  0xa3080  ?unmarshal@c_method@AdvionObjects@@QEAA?AW4elmx_error@lmx@@PEBD_KPEAUs_debug_error@4@@Z
    3043  0xa2fe0  ?unmarshal@c_method@AdvionObjects@@QEAA?AW4elmx_error@lmx@@QEBDPEAUs_debug_error@4@@Z
    3044  0xa3030  ?unmarshal@c_method@AdvionObjects@@QEAA?AW4elmx_error@lmx@@QEB_WPEAUs_debug_error@4@@Z
    3045  0x8d5d0  ?unmarshal@c_peakDetection@AdvionObjects@@QEAA?AW4elmx_error@lmx@@AEAVc_xml_reader@4@@Z
    3046  0x8d7a0  ?unmarshal@c_peakDetection@AdvionObjects@@QEAA?AW4elmx_error@lmx@@AEAVc_xml_reader@4@AEBV?$basic_string@DU?$char_traits@D@std@@V?$allocator@D@2@@std@@@Z
    3047 0x11cac0  ?unmarshal@c_peakDetection@AdvionObjects@@QEAA?AW4elmx_error@lmx@@AEBV?$basic_string@DU?$char_traits@D@std@@V?$allocator@D@2@@std@@PEAUs_debug_error@4@@Z
    3048  0x8d450  ?unmarshal@c_peakDetection@AdvionObjects@@QEAA?AW4elmx_error@lmx@@AEBVc_any_info@4@PEAUs_debug_error@4@@Z
    3049  0x8d3f0  ?unmarshal@c_peakDetection@AdvionObjects@@QEAA?AW4elmx_error@lmx@@PEBD_KPEAUs_debug_error@4@@Z
    3050  0x8d350  ?unmarshal@c_peakDetection@AdvionObjects@@QEAA?AW4elmx_error@lmx@@QEBDPEAUs_debug_error@4@@Z
    3051  0x8d3a0  ?unmarshal@c_peakDetection@AdvionObjects@@QEAA?AW4elmx_error@lmx@@QEB_WPEAUs_debug_error@4@@Z
    3052 0x129880  ?unmarshal@c_peakList@AdvionObjects@@QEAA?AW4elmx_error@lmx@@AEAVc_xml_reader@4@@Z
    3053 0x129a50  ?unmarshal@c_peakList@AdvionObjects@@QEAA?AW4elmx_error@lmx@@AEAVc_xml_reader@4@AEBV?$basic_string@DU?$char_traits@D@std@@V?$allocator@D@2@@std@@@Z
    3054 0x131970  ?unmarshal@c_peakList@AdvionObjects@@QEAA?AW4elmx_error@lmx@@AEBV?$basic_string@DU?$char_traits@D@std@@V?$allocator@D@2@@std@@PEAUs_debug_error@4@@Z
    3055 0x129700  ?unmarshal@c_peakList@AdvionObjects@@QEAA?AW4elmx_error@lmx@@AEBVc_any_info@4@PEAUs_debug_error@4@@Z
    3056 0x1296a0  ?unmarshal@c_peakList@AdvionObjects@@QEAA?AW4elmx_error@lmx@@PEBD_KPEAUs_debug_error@4@@Z
    3057 0x129600  ?unmarshal@c_peakList@AdvionObjects@@QEAA?AW4elmx_error@lmx@@QEBDPEAUs_debug_error@4@@Z
    3058 0x129650  ?unmarshal@c_peakList@AdvionObjects@@QEAA?AW4elmx_error@lmx@@QEB_WPEAUs_debug_error@4@@Z
    3059  0x9d130  ?unmarshal@c_processMethod@AdvionObjects@@QEAA?AW4elmx_error@lmx@@AEAVc_xml_reader@4@@Z
    3060  0x9d300  ?unmarshal@c_processMethod@AdvionObjects@@QEAA?AW4elmx_error@lmx@@AEAVc_xml_reader@4@AEBV?$basic_string@DU?$char_traits@D@std@@V?$allocator@D@2@@std@@@Z
    3061 0x11cb30  ?unmarshal@c_processMethod@AdvionObjects@@QEAA?AW4elmx_error@lmx@@AEBV?$basic_string@DU?$char_traits@D@std@@V?$allocator@D@2@@std@@PEAUs_debug_error@4@@Z
    3062  0x9cfb0  ?unmarshal@c_processMethod@AdvionObjects@@QEAA?AW4elmx_error@lmx@@AEBVc_any_info@4@PEAUs_debug_error@4@@Z
    3063  0x9cf50  ?unmarshal@c_processMethod@AdvionObjects@@QEAA?AW4elmx_error@lmx@@PEBD_KPEAUs_debug_error@4@@Z
    3064  0x9ceb0  ?unmarshal@c_processMethod@AdvionObjects@@QEAA?AW4elmx_error@lmx@@QEBDPEAUs_debug_error@4@@Z
    3065  0x9cf00  ?unmarshal@c_processMethod@AdvionObjects@@QEAA?AW4elmx_error@lmx@@QEB_WPEAUs_debug_error@4@@Z
    3066 0x133d30  ?unmarshal@c_speedCalibration@AdvionObjects@@QEAA?AW4elmx_error@lmx@@AEAVc_xml_reader@4@AEBV?$basic_string@DU?$char_traits@D@std@@V?$allocator@D@2@@std@@@Z
    3067 0x1375d0  ?unmarshal@c_tuneParameters@AdvionObjects@@QEAA?AW4elmx_error@lmx@@AEAVc_xml_reader@4@@Z
    3068 0x1377a0  ?unmarshal@c_tuneParameters@AdvionObjects@@QEAA?AW4elmx_error@lmx@@AEAVc_xml_reader@4@AEBV?$basic_string@DU?$char_traits@D@std@@V?$allocator@D@2@@std@@@Z
    3069 0x142260  ?unmarshal@c_tuneParameters@AdvionObjects@@QEAA?AW4elmx_error@lmx@@AEBV?$basic_string@DU?$char_traits@D@std@@V?$allocator@D@2@@std@@PEAUs_debug_error@4@@Z
    3070 0x137450  ?unmarshal@c_tuneParameters@AdvionObjects@@QEAA?AW4elmx_error@lmx@@AEBVc_any_info@4@PEAUs_debug_error@4@@Z
    3071 0x1373f0  ?unmarshal@c_tuneParameters@AdvionObjects@@QEAA?AW4elmx_error@lmx@@PEBD_KPEAUs_debug_error@4@@Z
    3072 0x137350  ?unmarshal@c_tuneParameters@AdvionObjects@@QEAA?AW4elmx_error@lmx@@QEBDPEAUs_debug_error@4@@Z
    3073 0x1373a0  ?unmarshal@c_tuneParameters@AdvionObjects@@QEAA?AW4elmx_error@lmx@@QEB_WPEAUs_debug_error@4@@Z
    3074  0x14920  ?unmarshal@c_uvDetectorDeviceInfo@AdvionLCObjects@@QEAA?AW4elmx_error@lmx@@AEAVc_xml_reader@4@@Z
    3075  0x14af0  ?unmarshal@c_uvDetectorDeviceInfo@AdvionLCObjects@@QEAA?AW4elmx_error@lmx@@AEAVc_xml_reader@4@AEBV?$basic_string@DU?$char_traits@D@std@@V?$allocator@D@2@@std@@@Z
    3076  0x5fe80  ?unmarshal@c_uvDetectorDeviceInfo@AdvionLCObjects@@QEAA?AW4elmx_error@lmx@@AEBV?$basic_string@DU?$char_traits@D@std@@V?$allocator@D@2@@std@@PEAUs_debug_error@4@@Z
    3077  0x147a0  ?unmarshal@c_uvDetectorDeviceInfo@AdvionLCObjects@@QEAA?AW4elmx_error@lmx@@AEBVc_any_info@4@PEAUs_debug_error@4@@Z
    3078  0x14740  ?unmarshal@c_uvDetectorDeviceInfo@AdvionLCObjects@@QEAA?AW4elmx_error@lmx@@PEBD_KPEAUs_debug_error@4@@Z
    3079  0x146a0  ?unmarshal@c_uvDetectorDeviceInfo@AdvionLCObjects@@QEAA?AW4elmx_error@lmx@@QEBDPEAUs_debug_error@4@@Z
    3080  0x146f0  ?unmarshal@c_uvDetectorDeviceInfo@AdvionLCObjects@@QEAA?AW4elmx_error@lmx@@QEB_WPEAUs_debug_error@4@@Z
    3081  0x76a60  ?unmarshal_attributes@c_AdditionalInfo@AdvionObjects@@IEAA_NAEAVc_xml_reader@lmx@@PEAW4elmx_error@4@@Z
    3082  0x19fa0  ?unmarshal_attributes@c_AdvionColumnOvenMethodType@AdvionLCObjects@@IEAA_NAEAVc_xml_reader@lmx@@PEAW4elmx_error@4@@Z
    3083  0x18100  ?unmarshal_attributes@c_AdvionLCMethod@AdvionLCObjects@@IEAA_NAEAVc_xml_reader@lmx@@PEAW4elmx_error@4@@Z
    3084  0x16760  ?unmarshal_attributes@c_AdvionLCMethodType@AdvionLCObjects@@IEAA_NAEAVc_xml_reader@lmx@@PEAW4elmx_error@4@@Z
    3085  0x1da50  ?unmarshal_attributes@c_AdvionUVMethodType@AdvionLCObjects@@IEAA_NAEAVc_xml_reader@lmx@@PEAW4elmx_error@4@@Z
    3086  0x1c8b0  ?unmarshal_attributes@c_AliasMethodType@AdvionLCObjects@@IEAA_NAEAVc_xml_reader@lmx@@PEAW4elmx_error@4@@Z
    3087  0x6e0e0  ?unmarshal_attributes@c_AnalogInput@AdvionObjects@@IEAA_NAEAVc_xml_reader@lmx@@PEAW4elmx_error@4@@Z
    3088  0x875e0  ?unmarshal_attributes@c_AnalogInputs@AdvionObjects@@IEAA_NAEAVc_xml_reader@lmx@@PEAW4elmx_error@4@@Z
    3089  0x82790  ?unmarshal_attributes@c_AnalogOutput@AdvionObjects@@IEAA_NAEAVc_xml_reader@lmx@@PEAW4elmx_error@4@@Z
    3090  0x80a30  ?unmarshal_attributes@c_AnalogOutputSmoothing@AdvionObjects@@IEAA_NAEAVc_xml_reader@lmx@@PEAW4elmx_error@4@@Z
    3091  0x97db0  ?unmarshal_attributes@c_AnalogOutputs@AdvionObjects@@IEAA_NAEAVc_xml_reader@lmx@@PEAW4elmx_error@4@@Z
    3092  0x9b700  ?unmarshal_attributes@c_Analyte@AdvionObjects@@IEAA_NAEAVc_xml_reader@lmx@@PEAW4elmx_error@4@@Z
    3093  0x8c0c0  ?unmarshal_attributes@c_AnalyteSettings@AdvionObjects@@IEAA_NAEAVc_xml_reader@lmx@@PEAW4elmx_error@4@@Z
    3094  0x63470  ?unmarshal_attributes@c_ApciSource@AdvionObjects@@IEAA_NAEAVc_xml_reader@lmx@@PEAW4elmx_error@4@@Z
    3095  0x11970  ?unmarshal_attributes@c_AvantSamplerCooling@AdvionLCObjects@@IEAA_NAEAVc_xml_reader@lmx@@PEAW4elmx_error@4@@Z
    3096   0xf810  ?unmarshal_attributes@c_AvantSamplerInjection@AdvionLCObjects@@IEAA_NAEAVc_xml_reader@lmx@@PEAW4elmx_error@4@@Z
    3097  0x1bcb0  ?unmarshal_attributes@c_AvantSamplerMethodType@AdvionLCObjects@@IEAA_NAEAVc_xml_reader@lmx@@PEAW4elmx_error@4@@Z
    3098  0x12450  ?unmarshal_attributes@c_AvantSamplerValveWash@AdvionLCObjects@@IEAA_NAEAVc_xml_reader@lmx@@PEAW4elmx_error@4@@Z
    3099  0x10d30  ?unmarshal_attributes@c_AvantSamplerWashLine@AdvionLCObjects@@IEAA_NAEAVc_xml_reader@lmx@@PEAW4elmx_error@4@@Z
    3100  0x8fc90  ?unmarshal_attributes@c_BackgroundOptions@AdvionObjects@@IEAA_NAEAVc_xml_reader@lmx@@PEAW4elmx_error@4@@Z
    3101  0x7bcb0  ?unmarshal_attributes@c_BackgroundSpectrum@AdvionObjects@@IEAA_NAEAVc_xml_reader@lmx@@PEAW4elmx_error@4@@Z
    3102  0x932d0  ?unmarshal_attributes@c_BackgroundSpectrumGraphInfo@AdvionObjects@@IEAA_NAEAVc_xml_reader@lmx@@PEAW4elmx_error@4@@Z
    3103  0x966e0  ?unmarshal_attributes@c_BasePeakChromGraphInfo@AdvionObjects@@IEAA_NAEAVc_xml_reader@lmx@@PEAW4elmx_error@4@@Z
    3104  0x7f4f0  ?unmarshal_attributes@c_BaselineRemoval@AdvionObjects@@IEAA_NAEAVc_xml_reader@lmx@@PEAW4elmx_error@4@@Z
    3105  0x7cd70  ?unmarshal_attributes@c_BoxFilter@AdvionObjects@@IEAA_NAEAVc_xml_reader@lmx@@PEAW4elmx_error@4@@Z
    3106  0x781a0  ?unmarshal_attributes@c_CalibrationAnalyte@AdvionObjects@@IEAA_NAEAVc_xml_reader@lmx@@PEAW4elmx_error@4@@Z
    3107  0x89e30  ?unmarshal_attributes@c_CalibrationStandard@AdvionObjects@@IEAA_NAEAVc_xml_reader@lmx@@PEAW4elmx_error@4@@Z
    3108  0x93df0  ?unmarshal_attributes@c_ChromGraphInfo@AdvionObjects@@IEAA_NAEAVc_xml_reader@lmx@@PEAW4elmx_error@4@@Z
    3109  0x6ef90  ?unmarshal_attributes@c_ClosureOutTrigger@AdvionObjects@@IEAA_NAEAVc_xml_reader@lmx@@PEAW4elmx_error@4@@Z
    3110   0xdd90  ?unmarshal_attributes@c_ClosureTriggerIn@AdvionLCObjects@@IEAA_NAEAVc_xml_reader@lmx@@PEAW4elmx_error@4@@Z
    3111  0x77640  ?unmarshal_attributes@c_ClosureTriggerIn@AdvionObjects@@IEAA_NAEAVc_xml_reader@lmx@@PEAW4elmx_error@4@@Z
    3112 0x135ff0  ?unmarshal_attributes@c_CmsTuneParametersType@AdvionObjects@@IEAA_NAEAVc_xml_reader@lmx@@PEAW4elmx_error@4@@Z
    3113   0x7190  ?unmarshal_attributes@c_ColumnOvenMethod@AdvionLCObjects@@IEAA_NAEAVc_xml_reader@lmx@@PEAW4elmx_error@4@@Z
    3114  0x1ad40  ?unmarshal_attributes@c_ContactClosureIn@AdvionLCObjects@@IEAA_NAEAVc_xml_reader@lmx@@PEAW4elmx_error@4@@Z
    3115  0x89000  ?unmarshal_attributes@c_ContactClosureIn@AdvionObjects@@IEAA_NAEAVc_xml_reader@lmx@@PEAW4elmx_error@4@@Z
    3116  0x881b0  ?unmarshal_attributes@c_ContactClosureOut@AdvionObjects@@IEAA_NAEAVc_xml_reader@lmx@@PEAW4elmx_error@4@@Z
    3117  0x98aa0  ?unmarshal_attributes@c_ContactClosuresOut@AdvionObjects@@IEAA_NAEAVc_xml_reader@lmx@@PEAW4elmx_error@4@@Z
    3118  0x64c30  ?unmarshal_attributes@c_DartSource@AdvionObjects@@IEAA_NAEAVc_xml_reader@lmx@@PEAW4elmx_error@4@@Z
    3119  0x6b300  ?unmarshal_attributes@c_DeltaBackgroundParameters@AdvionObjects@@IEAA_NAEAVc_xml_reader@lmx@@PEAW4elmx_error@4@@Z
    3120  0x86230  ?unmarshal_attributes@c_DeltaICAnalogOutput@AdvionObjects@@IEAA_NAEAVc_xml_reader@lmx@@PEAW4elmx_error@4@@Z
    3121  0x75800  ?unmarshal_attributes@c_DeltaICPeakTrigger@AdvionObjects@@IEAA_NAEAVc_xml_reader@lmx@@PEAW4elmx_error@4@@Z
    3122  0x86b10  ?unmarshal_attributes@c_DeltaXICAnalogOutput@AdvionObjects@@IEAA_NAEAVc_xml_reader@lmx@@PEAW4elmx_error@4@@Z
    3123  0x760e0  ?unmarshal_attributes@c_DeltaXICPeakTrigger@AdvionObjects@@IEAA_NAEAVc_xml_reader@lmx@@PEAW4elmx_error@4@@Z
    3124   0xc4e0  ?unmarshal_attributes@c_DiverterValveMethod@AdvionLCObjects@@IEAA_NAEAVc_xml_reader@lmx@@PEAW4elmx_error@4@@Z
    3125  0x64160  ?unmarshal_attributes@c_EsiSource@AdvionObjects@@IEAA_NAEAVc_xml_reader@lmx@@PEAW4elmx_error@4@@Z
    3126  0x843c0  ?unmarshal_attributes@c_ExtractedAnalogOutput@AdvionObjects@@IEAA_NAEAVc_xml_reader@lmx@@PEAW4elmx_error@4@@Z
    3127  0x73990  ?unmarshal_attributes@c_ExtractedPeakTrigger@AdvionObjects@@IEAA_NAEAVc_xml_reader@lmx@@PEAW4elmx_error@4@@Z
    3128  0x7c490  ?unmarshal_attributes@c_Filter@AdvionObjects@@IEAA_NAEAVc_xml_reader@lmx@@PEAW4elmx_error@4@@Z
    3129  0x8ece0  ?unmarshal_attributes@c_GlobalPeakDetection@AdvionObjects@@IEAA_NAEAVc_xml_reader@lmx@@PEAW4elmx_error@4@@Z
    3130   0xd080  ?unmarshal_attributes@c_GradientMethod@AdvionLCObjects@@IEAA_NAEAVc_xml_reader@lmx@@PEAW4elmx_error@4@@Z
    3131  0x1f9b0  ?unmarshal_attributes@c_GradientPumpType@AdvionLCObjects@@IEAA_NAEAVc_xml_reader@lmx@@PEAW4elmx_error@4@@Z
    3132  0x910f0  ?unmarshal_attributes@c_GraphInfo@AdvionObjects@@IEAA_NAEAVc_xml_reader@lmx@@PEAW4elmx_error@4@@Z
    3133 0x1270d0  ?unmarshal_attributes@c_IntegrationBaseline@AdvionObjects@@IEAA_NAEAVc_xml_reader@lmx@@PEAW4elmx_error@4@@Z
    3134  0x7b1a0  ?unmarshal_attributes@c_IntegrationPoint@AdvionObjects@@IEAA_NAEAVc_xml_reader@lmx@@PEAW4elmx_error@4@@Z
    3135  0x629a0  ?unmarshal_attributes@c_IonSource@AdvionObjects@@IEAA_NAEAVc_xml_reader@lmx@@PEAW4elmx_error@4@@Z
    3136  0x6c550  ?unmarshal_attributes@c_MassOfInterest@AdvionObjects@@IEAA_NAEAVc_xml_reader@lmx@@PEAW4elmx_error@4@@Z
    3137  0xa1880  ?unmarshal_attributes@c_MethodType@AdvionObjects@@IEAA_NAEAVc_xml_reader@lmx@@PEAW4elmx_error@4@@Z
    3138  0x94780  ?unmarshal_attributes@c_ParentChromGraphInfo@AdvionObjects@@IEAA_NAEAVc_xml_reader@lmx@@PEAW4elmx_error@4@@Z
    3139 0x128210  ?unmarshal_attributes@c_Peak@AdvionObjects@@IEAA_NAEAVc_xml_reader@lmx@@PEAW4elmx_error@4@@Z
    3140  0x7a430  ?unmarshal_attributes@c_PeakDetectionType@AdvionObjects@@IEAA_NAEAVc_xml_reader@lmx@@PEAW4elmx_error@4@@Z
    3141  0x71e30  ?unmarshal_attributes@c_PeakTrigger@AdvionObjects@@IEAA_NAEAVc_xml_reader@lmx@@PEAW4elmx_error@4@@Z
    3142   0x6450  ?unmarshal_attributes@c_PumpMethod@AdvionLCObjects@@IEAA_NAEAVc_xml_reader@lmx@@PEAW4elmx_error@4@@Z
    3143  0x79b20  ?unmarshal_attributes@c_QuantScanMode@AdvionObjects@@IEAA_NAEAVc_xml_reader@lmx@@PEAW4elmx_error@4@@Z
    3144  0x9fa10  ?unmarshal_attributes@c_QuantitationType@AdvionObjects@@IEAA_NAEAVc_xml_reader@lmx@@PEAW4elmx_error@4@@Z
    3145  0x7dce0  ?unmarshal_attributes@c_RangeScanMode@AdvionObjects@@IEAA_NAEAVc_xml_reader@lmx@@PEAW4elmx_error@4@@Z
    3146  0x70640  ?unmarshal_attributes@c_RepeatTimeTrigger@AdvionObjects@@IEAA_NAEAVc_xml_reader@lmx@@PEAW4elmx_error@4@@Z
    3147  0x85870  ?unmarshal_attributes@c_SIMAnalogOutput@AdvionObjects@@IEAA_NAEAVc_xml_reader@lmx@@PEAW4elmx_error@4@@Z
    3148  0x74e40  ?unmarshal_attributes@c_SIMPeakTrigger@AdvionObjects@@IEAA_NAEAVc_xml_reader@lmx@@PEAW4elmx_error@4@@Z
    3149  0x7eb20  ?unmarshal_attributes@c_SIMScanMode@AdvionObjects@@IEAA_NAEAVc_xml_reader@lmx@@PEAW4elmx_error@4@@Z
    3150   0x6b20  ?unmarshal_attributes@c_SamplerMethod@AdvionLCObjects@@IEAA_NAEAVc_xml_reader@lmx@@PEAW4elmx_error@4@@Z
    3151  0x97210  ?unmarshal_attributes@c_ScalarChannelChromGraphInfo@AdvionObjects@@IEAA_NAEAVc_xml_reader@lmx@@PEAW4elmx_error@4@@Z
    3152  0x6a6a0  ?unmarshal_attributes@c_ScanMode@AdvionObjects@@IEAA_NAEAVc_xml_reader@lmx@@PEAW4elmx_error@4@@Z
    3153  0x78d20  ?unmarshal_attributes@c_SemiQuantIsotope@AdvionObjects@@IEAA_NAEAVc_xml_reader@lmx@@PEAW4elmx_error@4@@Z
    3154  0x99630  ?unmarshal_attributes@c_SemiQuantSettings@AdvionObjects@@IEAA_NAEAVc_xml_reader@lmx@@PEAW4elmx_error@4@@Z
    3155  0x8aa00  ?unmarshal_attributes@c_SemiQuantStandard@AdvionObjects@@IEAA_NAEAVc_xml_reader@lmx@@PEAW4elmx_error@4@@Z
    3156  0x6d300  ?unmarshal_attributes@c_Smoothing@AdvionObjects@@IEAA_NAEAVc_xml_reader@lmx@@PEAW4elmx_error@4@@Z
    3157  0x927c0  ?unmarshal_attributes@c_SpectrumGraphInfo@AdvionObjects@@IEAA_NAEAVc_xml_reader@lmx@@PEAW4elmx_error@4@@Z
    3158  0x83820  ?unmarshal_attributes@c_TICAnalogOutput@AdvionObjects@@IEAA_NAEAVc_xml_reader@lmx@@PEAW4elmx_error@4@@Z
    3159  0x950d0  ?unmarshal_attributes@c_TICChromGraphInfo@AdvionObjects@@IEAA_NAEAVc_xml_reader@lmx@@PEAW4elmx_error@4@@Z
    3160  0x72df0  ?unmarshal_attributes@c_TICPeakTrigger@AdvionObjects@@IEAA_NAEAVc_xml_reader@lmx@@PEAW4elmx_error@4@@Z
    3161  0x7ff70  ?unmarshal_attributes@c_TimeBaselineRemoval@AdvionObjects@@IEAA_NAEAVc_xml_reader@lmx@@PEAW4elmx_error@4@@Z
    3162  0x6f970  ?unmarshal_attributes@c_TimeTrigger@AdvionObjects@@IEAA_NAEAVc_xml_reader@lmx@@PEAW4elmx_error@4@@Z
    3163  0x813d0  ?unmarshal_attributes@c_TriangleAnalogOutputSmoothing@AdvionObjects@@IEAA_NAEAVc_xml_reader@lmx@@PEAW4elmx_error@4@@Z
    3164   0xab10  ?unmarshal_attributes@c_UVAnalogOutput@AdvionLCObjects@@IEAA_NAEAVc_xml_reader@lmx@@PEAW4elmx_error@4@@Z
    3165   0x9e80  ?unmarshal_attributes@c_UVChannel@AdvionLCObjects@@IEAA_NAEAVc_xml_reader@lmx@@PEAW4elmx_error@4@@Z
    3166   0xb690  ?unmarshal_attributes@c_UVChannelAnalogOutput@AdvionLCObjects@@IEAA_NAEAVc_xml_reader@lmx@@PEAW4elmx_error@4@@Z
    3167  0x18e00  ?unmarshal_attributes@c_UVChannelScanMode@AdvionLCObjects@@IEAA_NAEAVc_xml_reader@lmx@@PEAW4elmx_error@4@@Z
    3168   0x7800  ?unmarshal_attributes@c_UVDetectorMethod@AdvionLCObjects@@IEAA_NAEAVc_xml_reader@lmx@@PEAW4elmx_error@4@@Z
    3169   0x8e60  ?unmarshal_attributes@c_UVRangeScanMode@AdvionLCObjects@@IEAA_NAEAVc_xml_reader@lmx@@PEAW4elmx_error@4@@Z
    3170   0x80b0  ?unmarshal_attributes@c_UVScanMode@AdvionLCObjects@@IEAA_NAEAVc_xml_reader@lmx@@PEAW4elmx_error@4@@Z
    3171  0x84e50  ?unmarshal_attributes@c_XICAnalogOutput@AdvionObjects@@IEAA_NAEAVc_xml_reader@lmx@@PEAW4elmx_error@4@@Z
    3172  0x95b30  ?unmarshal_attributes@c_XICChromGraphInfo@AdvionObjects@@IEAA_NAEAVc_xml_reader@lmx@@PEAW4elmx_error@4@@Z
    3173  0x74420  ?unmarshal_attributes@c_XICPeakTrigger@AdvionObjects@@IEAA_NAEAVc_xml_reader@lmx@@PEAW4elmx_error@4@@Z
    3174  0x9a170  ?unmarshal_attributes@c_additionalMasses@c_Analyte@AdvionObjects@@IEAA_NAEAVc_xml_reader@lmx@@PEAW4elmx_error@5@@Z
    3175 0x1334a0  ?unmarshal_attributes@c_calibration@AdvionObjects@@IEAA_NAEAVc_xml_reader@lmx@@PEAW4elmx_error@4@@Z
    3176 0x132930  ?unmarshal_attributes@c_calibrationSegment@AdvionObjects@@IEAA_NAEAVc_xml_reader@lmx@@PEAW4elmx_error@4@@Z
    3177  0x66800  ?unmarshal_attributes@c_ionSourceOptimization@AdvionObjects@@IEAA_NAEAVc_xml_reader@lmx@@PEAW4elmx_error@4@@Z
    3178 0x134b30  ?unmarshal_attributes@c_massCalibration@AdvionObjects@@IEAA_NAEAVc_xml_reader@lmx@@PEAW4elmx_error@4@@Z
    3179  0xa36b0  ?unmarshal_attributes@c_method@AdvionObjects@@IEAA_NAEAVc_xml_reader@lmx@@PEAW4elmx_error@4@@Z
    3180  0x8da40  ?unmarshal_attributes@c_peakDetection@AdvionObjects@@IEAA_NAEAVc_xml_reader@lmx@@PEAW4elmx_error@4@@Z
    3181 0x129d60  ?unmarshal_attributes@c_peakList@AdvionObjects@@IEAA_NAEAVc_xml_reader@lmx@@PEAW4elmx_error@4@@Z
    3182  0x9d7b0  ?unmarshal_attributes@c_processMethod@AdvionObjects@@IEAA_NAEAVc_xml_reader@lmx@@PEAW4elmx_error@4@@Z
    3183 0x133fd0  ?unmarshal_attributes@c_speedCalibration@AdvionObjects@@IEAA_NAEAVc_xml_reader@lmx@@PEAW4elmx_error@4@@Z
    3184 0x137a20  ?unmarshal_attributes@c_tuneParameters@AdvionObjects@@IEAA_NAEAVc_xml_reader@lmx@@PEAW4elmx_error@4@@Z
    3185  0x15040  ?unmarshal_attributes@c_uvDetectorDeviceInfo@AdvionLCObjects@@IEAA_NAEAVc_xml_reader@lmx@@PEAW4elmx_error@4@@Z
    3186  0x76a80  ?unmarshal_attributes_check@c_AdditionalInfo@AdvionObjects@@IEAA?AW4elmx_error@lmx@@AEAVc_xml_reader@4@@Z
    3187  0x19ff0  ?unmarshal_attributes_check@c_AdvionColumnOvenMethodType@AdvionLCObjects@@IEAA?AW4elmx_error@lmx@@AEAVc_xml_reader@4@@Z
    3188  0x181b0  ?unmarshal_attributes_check@c_AdvionLCMethod@AdvionLCObjects@@IEAA?AW4elmx_error@lmx@@AEAVc_xml_reader@4@@Z
    3189  0x16780  ?unmarshal_attributes_check@c_AdvionLCMethodType@AdvionLCObjects@@IEAA?AW4elmx_error@lmx@@AEAVc_xml_reader@4@@Z
    3190  0x1daa0  ?unmarshal_attributes_check@c_AdvionUVMethodType@AdvionLCObjects@@IEAA?AW4elmx_error@lmx@@AEAVc_xml_reader@4@@Z
    3191  0x1c900  ?unmarshal_attributes_check@c_AliasMethodType@AdvionLCObjects@@IEAA?AW4elmx_error@lmx@@AEAVc_xml_reader@4@@Z
    3192  0x6e100  ?unmarshal_attributes_check@c_AnalogInput@AdvionObjects@@IEAA?AW4elmx_error@lmx@@AEAVc_xml_reader@4@@Z
    3193  0x87600  ?unmarshal_attributes_check@c_AnalogInputs@AdvionObjects@@IEAA?AW4elmx_error@lmx@@AEAVc_xml_reader@4@@Z
    3194  0x827b0  ?unmarshal_attributes_check@c_AnalogOutput@AdvionObjects@@IEAA?AW4elmx_error@lmx@@AEAVc_xml_reader@4@@Z
    3195  0x80a50  ?unmarshal_attributes_check@c_AnalogOutputSmoothing@AdvionObjects@@IEAA?AW4elmx_error@lmx@@AEAVc_xml_reader@4@@Z
    3196  0x97dd0  ?unmarshal_attributes_check@c_AnalogOutputs@AdvionObjects@@IEAA?AW4elmx_error@lmx@@AEAVc_xml_reader@4@@Z
    3197  0x9b7a0  ?unmarshal_attributes_check@c_Analyte@AdvionObjects@@IEAA?AW4elmx_error@lmx@@AEAVc_xml_reader@4@@Z
    3198  0x8c270  ?unmarshal_attributes_check@c_AnalyteSettings@AdvionObjects@@IEAA?AW4elmx_error@lmx@@AEAVc_xml_reader@4@@Z
    3199  0x634c0  ?unmarshal_attributes_check@c_ApciSource@AdvionObjects@@IEAA?AW4elmx_error@lmx@@AEAVc_xml_reader@4@@Z
    3200  0x11990  ?unmarshal_attributes_check@c_AvantSamplerCooling@AdvionLCObjects@@IEAA?AW4elmx_error@lmx@@AEAVc_xml_reader@4@@Z
    3201   0xf830  ?unmarshal_attributes_check@c_AvantSamplerInjection@AdvionLCObjects@@IEAA?AW4elmx_error@lmx@@AEAVc_xml_reader@4@@Z
    3202  0x1bd00  ?unmarshal_attributes_check@c_AvantSamplerMethodType@AdvionLCObjects@@IEAA?AW4elmx_error@lmx@@AEAVc_xml_reader@4@@Z
    3203  0x12470  ?unmarshal_attributes_check@c_AvantSamplerValveWash@AdvionLCObjects@@IEAA?AW4elmx_error@lmx@@AEAVc_xml_reader@4@@Z
    3204  0x10d50  ?unmarshal_attributes_check@c_AvantSamplerWashLine@AdvionLCObjects@@IEAA?AW4elmx_error@lmx@@AEAVc_xml_reader@4@@Z
    3205  0x8fcb0  ?unmarshal_attributes_check@c_BackgroundOptions@AdvionObjects@@IEAA?AW4elmx_error@lmx@@AEAVc_xml_reader@4@@Z
    3206  0x7bcd0  ?unmarshal_attributes_check@c_BackgroundSpectrum@AdvionObjects@@IEAA?AW4elmx_error@lmx@@AEAVc_xml_reader@4@@Z
    3207  0x93320  ?unmarshal_attributes_check@c_BackgroundSpectrumGraphInfo@AdvionObjects@@IEAA?AW4elmx_error@lmx@@AEAVc_xml_reader@4@@Z
    3208  0x96730  ?unmarshal_attributes_check@c_BasePeakChromGraphInfo@AdvionObjects@@IEAA?AW4elmx_error@lmx@@AEAVc_xml_reader@4@@Z
    3209  0x7f510  ?unmarshal_attributes_check@c_BaselineRemoval@AdvionObjects@@IEAA?AW4elmx_error@lmx@@AEAVc_xml_reader@4@@Z
    3210  0x7cdc0  ?unmarshal_attributes_check@c_BoxFilter@AdvionObjects@@IEAA?AW4elmx_error@lmx@@AEAVc_xml_reader@4@@Z
    3211  0x78240  ?unmarshal_attributes_check@c_CalibrationAnalyte@AdvionObjects@@IEAA?AW4elmx_error@lmx@@AEAVc_xml_reader@4@@Z
    3212  0x89f10  ?unmarshal_attributes_check@c_CalibrationStandard@AdvionObjects@@IEAA?AW4elmx_error@lmx@@AEAVc_xml_reader@4@@Z
    3213  0x93e40  ?unmarshal_attributes_check@c_ChromGraphInfo@AdvionObjects@@IEAA?AW4elmx_error@lmx@@AEAVc_xml_reader@4@@Z
    3214  0x6efb0  ?unmarshal_attributes_check@c_ClosureOutTrigger@AdvionObjects@@IEAA?AW4elmx_error@lmx@@AEAVc_xml_reader@4@@Z
    3215   0xddb0  ?unmarshal_attributes_check@c_ClosureTriggerIn@AdvionLCObjects@@IEAA?AW4elmx_error@lmx@@AEAVc_xml_reader@4@@Z
    3216  0x77660  ?unmarshal_attributes_check@c_ClosureTriggerIn@AdvionObjects@@IEAA?AW4elmx_error@lmx@@AEAVc_xml_reader@4@@Z
    3217 0x136010  ?unmarshal_attributes_check@c_CmsTuneParametersType@AdvionObjects@@IEAA?AW4elmx_error@lmx@@AEAVc_xml_reader@4@@Z
    3218   0x71b0  ?unmarshal_attributes_check@c_ColumnOvenMethod@AdvionLCObjects@@IEAA?AW4elmx_error@lmx@@AEAVc_xml_reader@4@@Z
    3219  0x1ad60  ?unmarshal_attributes_check@c_ContactClosureIn@AdvionLCObjects@@IEAA?AW4elmx_error@lmx@@AEAVc_xml_reader@4@@Z
    3220  0x89020  ?unmarshal_attributes_check@c_ContactClosureIn@AdvionObjects@@IEAA?AW4elmx_error@lmx@@AEAVc_xml_reader@4@@Z
    3221  0x881d0  ?unmarshal_attributes_check@c_ContactClosureOut@AdvionObjects@@IEAA?AW4elmx_error@lmx@@AEAVc_xml_reader@4@@Z
    3222  0x98ac0  ?unmarshal_attributes_check@c_ContactClosuresOut@AdvionObjects@@IEAA?AW4elmx_error@lmx@@AEAVc_xml_reader@4@@Z
    3223  0x64c80  ?unmarshal_attributes_check@c_DartSource@AdvionObjects@@IEAA?AW4elmx_error@lmx@@AEAVc_xml_reader@4@@Z
    3224  0x6b320  ?unmarshal_attributes_check@c_DeltaBackgroundParameters@AdvionObjects@@IEAA?AW4elmx_error@lmx@@AEAVc_xml_reader@4@@Z
    3225  0x86280  ?unmarshal_attributes_check@c_DeltaICAnalogOutput@AdvionObjects@@IEAA?AW4elmx_error@lmx@@AEAVc_xml_reader@4@@Z
    3226  0x75850  ?unmarshal_attributes_check@c_DeltaICPeakTrigger@AdvionObjects@@IEAA?AW4elmx_error@lmx@@AEAVc_xml_reader@4@@Z
    3227  0x86b60  ?unmarshal_attributes_check@c_DeltaXICAnalogOutput@AdvionObjects@@IEAA?AW4elmx_error@lmx@@AEAVc_xml_reader@4@@Z
    3228  0x76130  ?unmarshal_attributes_check@c_DeltaXICPeakTrigger@AdvionObjects@@IEAA?AW4elmx_error@lmx@@AEAVc_xml_reader@4@@Z
    3229   0xc500  ?unmarshal_attributes_check@c_DiverterValveMethod@AdvionLCObjects@@IEAA?AW4elmx_error@lmx@@AEAVc_xml_reader@4@@Z
    3230  0x641b0  ?unmarshal_attributes_check@c_EsiSource@AdvionObjects@@IEAA?AW4elmx_error@lmx@@AEAVc_xml_reader@4@@Z
    3231  0x84410  ?unmarshal_attributes_check@c_ExtractedAnalogOutput@AdvionObjects@@IEAA?AW4elmx_error@lmx@@AEAVc_xml_reader@4@@Z
    3232  0x739e0  ?unmarshal_attributes_check@c_ExtractedPeakTrigger@AdvionObjects@@IEAA?AW4elmx_error@lmx@@AEAVc_xml_reader@4@@Z
    3233  0x7c4b0  ?unmarshal_attributes_check@c_Filter@AdvionObjects@@IEAA?AW4elmx_error@lmx@@AEAVc_xml_reader@4@@Z
    3234  0x8ed30  ?unmarshal_attributes_check@c_GlobalPeakDetection@AdvionObjects@@IEAA?AW4elmx_error@lmx@@AEAVc_xml_reader@4@@Z
    3235   0xd0a0  ?unmarshal_attributes_check@c_GradientMethod@AdvionLCObjects@@IEAA?AW4elmx_error@lmx@@AEAVc_xml_reader@4@@Z
    3236  0x1fa00  ?unmarshal_attributes_check@c_GradientPumpType@AdvionLCObjects@@IEAA?AW4elmx_error@lmx@@AEAVc_xml_reader@4@@Z
    3237  0x91110  ?unmarshal_attributes_check@c_GraphInfo@AdvionObjects@@IEAA?AW4elmx_error@lmx@@AEAVc_xml_reader@4@@Z
    3238 0x1270f0  ?unmarshal_attributes_check@c_IntegrationBaseline@AdvionObjects@@IEAA?AW4elmx_error@lmx@@AEAVc_xml_reader@4@@Z
    3239  0x7b1c0  ?unmarshal_attributes_check@c_IntegrationPoint@AdvionObjects@@IEAA?AW4elmx_error@lmx@@AEAVc_xml_reader@4@@Z
    3240  0x629c0  ?unmarshal_attributes_check@c_IonSource@AdvionObjects@@IEAA?AW4elmx_error@lmx@@AEAVc_xml_reader@4@@Z
    3241  0x6c570  ?unmarshal_attributes_check@c_MassOfInterest@AdvionObjects@@IEAA?AW4elmx_error@lmx@@AEAVc_xml_reader@4@@Z
    3242  0xa18a0  ?unmarshal_attributes_check@c_MethodType@AdvionObjects@@IEAA?AW4elmx_error@lmx@@AEAVc_xml_reader@4@@Z
    3243  0x947d0  ?unmarshal_attributes_check@c_ParentChromGraphInfo@AdvionObjects@@IEAA?AW4elmx_error@lmx@@AEAVc_xml_reader@4@@Z
    3244 0x128230  ?unmarshal_attributes_check@c_Peak@AdvionObjects@@IEAA?AW4elmx_error@lmx@@AEAVc_xml_reader@4@@Z
    3245  0x7a450  ?unmarshal_attributes_check@c_PeakDetectionType@AdvionObjects@@IEAA?AW4elmx_error@lmx@@AEAVc_xml_reader@4@@Z
    3246  0x71e80  ?unmarshal_attributes_check@c_PeakTrigger@AdvionObjects@@IEAA?AW4elmx_error@lmx@@AEAVc_xml_reader@4@@Z
    3247   0x6470  ?unmarshal_attributes_check@c_PumpMethod@AdvionLCObjects@@IEAA?AW4elmx_error@lmx@@AEAVc_xml_reader@4@@Z
    3248  0x79bc0  ?unmarshal_attributes_check@c_QuantScanMode@AdvionObjects@@IEAA?AW4elmx_error@lmx@@AEAVc_xml_reader@4@@Z
    3249  0x9fab0  ?unmarshal_attributes_check@c_QuantitationType@AdvionObjects@@IEAA?AW4elmx_error@lmx@@AEAVc_xml_reader@4@@Z
    3250  0x7dd30  ?unmarshal_attributes_check@c_RangeScanMode@AdvionObjects@@IEAA?AW4elmx_error@lmx@@AEAVc_xml_reader@4@@Z
    3251  0x70690  ?unmarshal_attributes_check@c_RepeatTimeTrigger@AdvionObjects@@IEAA?AW4elmx_error@lmx@@AEAVc_xml_reader@4@@Z
    3252  0x858c0  ?unmarshal_attributes_check@c_SIMAnalogOutput@AdvionObjects@@IEAA?AW4elmx_error@lmx@@AEAVc_xml_reader@4@@Z
    3253  0x74e90  ?unmarshal_attributes_check@c_SIMPeakTrigger@AdvionObjects@@IEAA?AW4elmx_error@lmx@@AEAVc_xml_reader@4@@Z
    3254  0x7eb70  ?unmarshal_attributes_check@c_SIMScanMode@AdvionObjects@@IEAA?AW4elmx_error@lmx@@AEAVc_xml_reader@4@@Z
    3255   0x6b40  ?unmarshal_attributes_check@c_SamplerMethod@AdvionLCObjects@@IEAA?AW4elmx_error@lmx@@AEAVc_xml_reader@4@@Z
    3256  0x97260  ?unmarshal_attributes_check@c_ScalarChannelChromGraphInfo@AdvionObjects@@IEAA?AW4elmx_error@lmx@@AEAVc_xml_reader@4@@Z
    3257  0x6a6c0  ?unmarshal_attributes_check@c_ScanMode@AdvionObjects@@IEAA?AW4elmx_error@lmx@@AEAVc_xml_reader@4@@Z
    3258  0x78d40  ?unmarshal_attributes_check@c_SemiQuantIsotope@AdvionObjects@@IEAA?AW4elmx_error@lmx@@AEAVc_xml_reader@4@@Z
    3259  0x99650  ?unmarshal_attributes_check@c_SemiQuantSettings@AdvionObjects@@IEAA?AW4elmx_error@lmx@@AEAVc_xml_reader@4@@Z
    3260  0x8aa20  ?unmarshal_attributes_check@c_SemiQuantStandard@AdvionObjects@@IEAA?AW4elmx_error@lmx@@AEAVc_xml_reader@4@@Z
    3261  0x6d320  ?unmarshal_attributes_check@c_Smoothing@AdvionObjects@@IEAA?AW4elmx_error@lmx@@AEAVc_xml_reader@4@@Z
    3262  0x92810  ?unmarshal_attributes_check@c_SpectrumGraphInfo@AdvionObjects@@IEAA?AW4elmx_error@lmx@@AEAVc_xml_reader@4@@Z
    3263  0x83870  ?unmarshal_attributes_check@c_TICAnalogOutput@AdvionObjects@@IEAA?AW4elmx_error@lmx@@AEAVc_xml_reader@4@@Z
    3264  0x95120  ?unmarshal_attributes_check@c_TICChromGraphInfo@AdvionObjects@@IEAA?AW4elmx_error@lmx@@AEAVc_xml_reader@4@@Z
    3265  0x72e40  ?unmarshal_attributes_check@c_TICPeakTrigger@AdvionObjects@@IEAA?AW4elmx_error@lmx@@AEAVc_xml_reader@4@@Z
    3266  0x7ffc0  ?unmarshal_attributes_check@c_TimeBaselineRemoval@AdvionObjects@@IEAA?AW4elmx_error@lmx@@AEAVc_xml_reader@4@@Z
    3267  0x6f9c0  ?unmarshal_attributes_check@c_TimeTrigger@AdvionObjects@@IEAA?AW4elmx_error@lmx@@AEAVc_xml_reader@4@@Z
    3268  0x81420  ?unmarshal_attributes_check@c_TriangleAnalogOutputSmoothing@AdvionObjects@@IEAA?AW4elmx_error@lmx@@AEAVc_xml_reader@4@@Z
    3269   0xab30  ?unmarshal_attributes_check@c_UVAnalogOutput@AdvionLCObjects@@IEAA?AW4elmx_error@lmx@@AEAVc_xml_reader@4@@Z
    3270   0x9ea0  ?unmarshal_attributes_check@c_UVChannel@AdvionLCObjects@@IEAA?AW4elmx_error@lmx@@AEAVc_xml_reader@4@@Z
    3271   0xb6e0  ?unmarshal_attributes_check@c_UVChannelAnalogOutput@AdvionLCObjects@@IEAA?AW4elmx_error@lmx@@AEAVc_xml_reader@4@@Z
    3272  0x18e50  ?unmarshal_attributes_check@c_UVChannelScanMode@AdvionLCObjects@@IEAA?AW4elmx_error@lmx@@AEAVc_xml_reader@4@@Z
    3273   0x7820  ?unmarshal_attributes_check@c_UVDetectorMethod@AdvionLCObjects@@IEAA?AW4elmx_error@lmx@@AEAVc_xml_reader@4@@Z
    3274   0x8eb0  ?unmarshal_attributes_check@c_UVRangeScanMode@AdvionLCObjects@@IEAA?AW4elmx_error@lmx@@AEAVc_xml_reader@4@@Z
    3275   0x80d0  ?unmarshal_attributes_check@c_UVScanMode@AdvionLCObjects@@IEAA?AW4elmx_error@lmx@@AEAVc_xml_reader@4@@Z
    3276  0x84ea0  ?unmarshal_attributes_check@c_XICAnalogOutput@AdvionObjects@@IEAA?AW4elmx_error@lmx@@AEAVc_xml_reader@4@@Z
    3277  0x95b80  ?unmarshal_attributes_check@c_XICChromGraphInfo@AdvionObjects@@IEAA?AW4elmx_error@lmx@@AEAVc_xml_reader@4@@Z
    3278  0x74470  ?unmarshal_attributes_check@c_XICPeakTrigger@AdvionObjects@@IEAA?AW4elmx_error@lmx@@AEAVc_xml_reader@4@@Z
    3279  0x9a190  ?unmarshal_attributes_check@c_additionalMasses@c_Analyte@AdvionObjects@@IEAA?AW4elmx_error@lmx@@AEAVc_xml_reader@5@@Z
    3280 0x1334c0  ?unmarshal_attributes_check@c_calibration@AdvionObjects@@IEAA?AW4elmx_error@lmx@@AEAVc_xml_reader@4@@Z
    3281 0x132950  ?unmarshal_attributes_check@c_calibrationSegment@AdvionObjects@@IEAA?AW4elmx_error@lmx@@AEAVc_xml_reader@4@@Z
    3282  0x668a0  ?unmarshal_attributes_check@c_ionSourceOptimization@AdvionObjects@@IEAA?AW4elmx_error@lmx@@AEAVc_xml_reader@4@@Z
    3283 0x134b50  ?unmarshal_attributes_check@c_massCalibration@AdvionObjects@@IEAA?AW4elmx_error@lmx@@AEAVc_xml_reader@4@@Z
    3284  0xa3760  ?unmarshal_attributes_check@c_method@AdvionObjects@@IEAA?AW4elmx_error@lmx@@AEAVc_xml_reader@4@@Z
    3285  0x8dae0  ?unmarshal_attributes_check@c_peakDetection@AdvionObjects@@IEAA?AW4elmx_error@lmx@@AEAVc_xml_reader@4@@Z
    3286 0x129e00  ?unmarshal_attributes_check@c_peakList@AdvionObjects@@IEAA?AW4elmx_error@lmx@@AEAVc_xml_reader@4@@Z
    3287  0x9d850  ?unmarshal_attributes_check@c_processMethod@AdvionObjects@@IEAA?AW4elmx_error@lmx@@AEAVc_xml_reader@4@@Z
    3288 0x134070  ?unmarshal_attributes_check@c_speedCalibration@AdvionObjects@@IEAA?AW4elmx_error@lmx@@AEAVc_xml_reader@4@@Z
    3289 0x137ad0  ?unmarshal_attributes_check@c_tuneParameters@AdvionObjects@@IEAA?AW4elmx_error@lmx@@AEAVc_xml_reader@4@@Z
    3290  0x150e0  ?unmarshal_attributes_check@c_uvDetectorDeviceInfo@AdvionLCObjects@@IEAA?AW4elmx_error@lmx@@AEAVc_xml_reader@4@@Z
    3291  0x76aa0  ?unmarshal_body@c_AdditionalInfo@AdvionObjects@@IEAA_NAEAVc_xml_reader@lmx@@PEAW4elmx_error@4@@Z
    3292  0x1a050  ?unmarshal_body@c_AdvionColumnOvenMethodType@AdvionLCObjects@@IEAA_NAEAVc_xml_reader@lmx@@PEAW4elmx_error@4@@Z
    3293  0x18210  ?unmarshal_body@c_AdvionLCMethod@AdvionLCObjects@@IEAA_NAEAVc_xml_reader@lmx@@PEAW4elmx_error@4@@Z
    3294  0x167a0  ?unmarshal_body@c_AdvionLCMethodType@AdvionLCObjects@@IEAA_NAEAVc_xml_reader@lmx@@PEAW4elmx_error@4@@Z
    3295  0x1db00  ?unmarshal_body@c_AdvionUVMethodType@AdvionLCObjects@@IEAA_NAEAVc_xml_reader@lmx@@PEAW4elmx_error@4@@Z
    3296  0x1c960  ?unmarshal_body@c_AliasMethodType@AdvionLCObjects@@IEAA_NAEAVc_xml_reader@lmx@@PEAW4elmx_error@4@@Z
    3297  0x6e120  ?unmarshal_body@c_AnalogInput@AdvionObjects@@IEAA_NAEAVc_xml_reader@lmx@@PEAW4elmx_error@4@@Z
    3298  0x87620  ?unmarshal_body@c_AnalogInputs@AdvionObjects@@IEAA_NAEAVc_xml_reader@lmx@@PEAW4elmx_error@4@@Z
    3299  0x827d0  ?unmarshal_body@c_AnalogOutput@AdvionObjects@@IEAA_NAEAVc_xml_reader@lmx@@PEAW4elmx_error@4@@Z
    3300  0x80a70  ?unmarshal_body@c_AnalogOutputSmoothing@AdvionObjects@@IEAA_NAEAVc_xml_reader@lmx@@PEAW4elmx_error@4@@Z
    3301  0x97df0  ?unmarshal_body@c_AnalogOutputs@AdvionObjects@@IEAA_NAEAVc_xml_reader@lmx@@PEAW4elmx_error@4@@Z
    3302  0x9b8d0  ?unmarshal_body@c_Analyte@AdvionObjects@@IEAA_NAEAVc_xml_reader@lmx@@PEAW4elmx_error@4@@Z
    3303  0x8c290  ?unmarshal_body@c_AnalyteSettings@AdvionObjects@@IEAA_NAEAVc_xml_reader@lmx@@PEAW4elmx_error@4@@Z
    3304  0x63520  ?unmarshal_body@c_ApciSource@AdvionObjects@@IEAA_NAEAVc_xml_reader@lmx@@PEAW4elmx_error@4@@Z
    3305  0x119b0  ?unmarshal_body@c_AvantSamplerCooling@AdvionLCObjects@@IEAA_NAEAVc_xml_reader@lmx@@PEAW4elmx_error@4@@Z
    3306   0xf850  ?unmarshal_body@c_AvantSamplerInjection@AdvionLCObjects@@IEAA_NAEAVc_xml_reader@lmx@@PEAW4elmx_error@4@@Z
    3307  0x1bd60  ?unmarshal_body@c_AvantSamplerMethodType@AdvionLCObjects@@IEAA_NAEAVc_xml_reader@lmx@@PEAW4elmx_error@4@@Z
    3308  0x12490  ?unmarshal_body@c_AvantSamplerValveWash@AdvionLCObjects@@IEAA_NAEAVc_xml_reader@lmx@@PEAW4elmx_error@4@@Z
    3309  0x10d70  ?unmarshal_body@c_AvantSamplerWashLine@AdvionLCObjects@@IEAA_NAEAVc_xml_reader@lmx@@PEAW4elmx_error@4@@Z
    3310  0x8fcd0  ?unmarshal_body@c_BackgroundOptions@AdvionObjects@@IEAA_NAEAVc_xml_reader@lmx@@PEAW4elmx_error@4@@Z
    3311  0x7bcf0  ?unmarshal_body@c_BackgroundSpectrum@AdvionObjects@@IEAA_NAEAVc_xml_reader@lmx@@PEAW4elmx_error@4@@Z
    3312  0x93380  ?unmarshal_body@c_BackgroundSpectrumGraphInfo@AdvionObjects@@IEAA_NAEAVc_xml_reader@lmx@@PEAW4elmx_error@4@@Z
    3313  0x96790  ?unmarshal_body@c_BasePeakChromGraphInfo@AdvionObjects@@IEAA_NAEAVc_xml_reader@lmx@@PEAW4elmx_error@4@@Z
    3314  0x7f530  ?unmarshal_body@c_BaselineRemoval@AdvionObjects@@IEAA_NAEAVc_xml_reader@lmx@@PEAW4elmx_error@4@@Z
    3315  0x7ce20  ?unmarshal_body@c_BoxFilter@AdvionObjects@@IEAA_NAEAVc_xml_reader@lmx@@PEAW4elmx_error@4@@Z
    3316  0x78260  ?unmarshal_body@c_CalibrationAnalyte@AdvionObjects@@IEAA_NAEAVc_xml_reader@lmx@@PEAW4elmx_error@4@@Z
    3317  0x89f30  ?unmarshal_body@c_CalibrationStandard@AdvionObjects@@IEAA_NAEAVc_xml_reader@lmx@@PEAW4elmx_error@4@@Z
    3318  0x93ea0  ?unmarshal_body@c_ChromGraphInfo@AdvionObjects@@IEAA_NAEAVc_xml_reader@lmx@@PEAW4elmx_error@4@@Z
    3319  0x6efd0  ?unmarshal_body@c_ClosureOutTrigger@AdvionObjects@@IEAA_NAEAVc_xml_reader@lmx@@PEAW4elmx_error@4@@Z
    3320   0xddd0  ?unmarshal_body@c_ClosureTriggerIn@AdvionLCObjects@@IEAA_NAEAVc_xml_reader@lmx@@PEAW4elmx_error@4@@Z
    3321  0x77680  ?unmarshal_body@c_ClosureTriggerIn@AdvionObjects@@IEAA_NAEAVc_xml_reader@lmx@@PEAW4elmx_error@4@@Z
    3322 0x136030  ?unmarshal_body@c_CmsTuneParametersType@AdvionObjects@@IEAA_NAEAVc_xml_reader@lmx@@PEAW4elmx_error@4@@Z
    3323   0x71d0  ?unmarshal_body@c_ColumnOvenMethod@AdvionLCObjects@@IEAA_NAEAVc_xml_reader@lmx@@PEAW4elmx_error@4@@Z
    3324  0x1ad80  ?unmarshal_body@c_ContactClosureIn@AdvionLCObjects@@IEAA_NAEAVc_xml_reader@lmx@@PEAW4elmx_error@4@@Z
    3325  0x89040  ?unmarshal_body@c_ContactClosureIn@AdvionObjects@@IEAA_NAEAVc_xml_reader@lmx@@PEAW4elmx_error@4@@Z
    3326  0x881f0  ?unmarshal_body@c_ContactClosureOut@AdvionObjects@@IEAA_NAEAVc_xml_reader@lmx@@PEAW4elmx_error@4@@Z
    3327  0x98ae0  ?unmarshal_body@c_ContactClosuresOut@AdvionObjects@@IEAA_NAEAVc_xml_reader@lmx@@PEAW4elmx_error@4@@Z
    3328  0x64ce0  ?unmarshal_body@c_DartSource@AdvionObjects@@IEAA_NAEAVc_xml_reader@lmx@@PEAW4elmx_error@4@@Z
    3329  0x6b340  ?unmarshal_body@c_DeltaBackgroundParameters@AdvionObjects@@IEAA_NAEAVc_xml_reader@lmx@@PEAW4elmx_error@4@@Z
    3330  0x862e0  ?unmarshal_body@c_DeltaICAnalogOutput@AdvionObjects@@IEAA_NAEAVc_xml_reader@lmx@@PEAW4elmx_error@4@@Z
    3331  0x758b0  ?unmarshal_body@c_DeltaICPeakTrigger@AdvionObjects@@IEAA_NAEAVc_xml_reader@lmx@@PEAW4elmx_error@4@@Z
    3332  0x86bc0  ?unmarshal_body@c_DeltaXICAnalogOutput@AdvionObjects@@IEAA_NAEAVc_xml_reader@lmx@@PEAW4elmx_error@4@@Z
    3333  0x76190  ?unmarshal_body@c_DeltaXICPeakTrigger@AdvionObjects@@IEAA_NAEAVc_xml_reader@lmx@@PEAW4elmx_error@4@@Z
    3334   0xc520  ?unmarshal_body@c_DiverterValveMethod@AdvionLCObjects@@IEAA_NAEAVc_xml_reader@lmx@@PEAW4elmx_error@4@@Z
    3335  0x64210  ?unmarshal_body@c_EsiSource@AdvionObjects@@IEAA_NAEAVc_xml_reader@lmx@@PEAW4elmx_error@4@@Z
    3336  0x84470  ?unmarshal_body@c_ExtractedAnalogOutput@AdvionObjects@@IEAA_NAEAVc_xml_reader@lmx@@PEAW4elmx_error@4@@Z
    3337  0x73a40  ?unmarshal_body@c_ExtractedPeakTrigger@AdvionObjects@@IEAA_NAEAVc_xml_reader@lmx@@PEAW4elmx_error@4@@Z
    3338  0x7c4d0  ?unmarshal_body@c_Filter@AdvionObjects@@IEAA_NAEAVc_xml_reader@lmx@@PEAW4elmx_error@4@@Z
    3339  0x8ed90  ?unmarshal_body@c_GlobalPeakDetection@AdvionObjects@@IEAA_NAEAVc_xml_reader@lmx@@PEAW4elmx_error@4@@Z
    3340   0xd0c0  ?unmarshal_body@c_GradientMethod@AdvionLCObjects@@IEAA_NAEAVc_xml_reader@lmx@@PEAW4elmx_error@4@@Z
    3341  0x1fa60  ?unmarshal_body@c_GradientPumpType@AdvionLCObjects@@IEAA_NAEAVc_xml_reader@lmx@@PEAW4elmx_error@4@@Z
    3342  0x91130  ?unmarshal_body@c_GraphInfo@AdvionObjects@@IEAA_NAEAVc_xml_reader@lmx@@PEAW4elmx_error@4@@Z
    3343 0x127110  ?unmarshal_body@c_IntegrationBaseline@AdvionObjects@@IEAA_NAEAVc_xml_reader@lmx@@PEAW4elmx_error@4@@Z
    3344  0x7b1e0  ?unmarshal_body@c_IntegrationPoint@AdvionObjects@@IEAA_NAEAVc_xml_reader@lmx@@PEAW4elmx_error@4@@Z
    3345  0x629e0  ?unmarshal_body@c_IonSource@AdvionObjects@@IEAA_NAEAVc_xml_reader@lmx@@PEAW4elmx_error@4@@Z
    3346  0x6c590  ?unmarshal_body@c_MassOfInterest@AdvionObjects@@IEAA_NAEAVc_xml_reader@lmx@@PEAW4elmx_error@4@@Z
    3347  0xa18c0  ?unmarshal_body@c_MethodType@AdvionObjects@@IEAA_NAEAVc_xml_reader@lmx@@PEAW4elmx_error@4@@Z
    3348  0x94830  ?unmarshal_body@c_ParentChromGraphInfo@AdvionObjects@@IEAA_NAEAVc_xml_reader@lmx@@PEAW4elmx_error@4@@Z
    3349 0x128250  ?unmarshal_body@c_Peak@AdvionObjects@@IEAA_NAEAVc_xml_reader@lmx@@PEAW4elmx_error@4@@Z
    3350  0x7a470  ?unmarshal_body@c_PeakDetectionType@AdvionObjects@@IEAA_NAEAVc_xml_reader@lmx@@PEAW4elmx_error@4@@Z
    3351  0x71ee0  ?unmarshal_body@c_PeakTrigger@AdvionObjects@@IEAA_NAEAVc_xml_reader@lmx@@PEAW4elmx_error@4@@Z
    3352   0x6490  ?unmarshal_body@c_PumpMethod@AdvionLCObjects@@IEAA_NAEAVc_xml_reader@lmx@@PEAW4elmx_error@4@@Z
    3353  0x79be0  ?unmarshal_body@c_QuantScanMode@AdvionObjects@@IEAA_NAEAVc_xml_reader@lmx@@PEAW4elmx_error@4@@Z
    3354  0x9fad0  ?unmarshal_body@c_QuantitationType@AdvionObjects@@IEAA_NAEAVc_xml_reader@lmx@@PEAW4elmx_error@4@@Z
    3355  0x7dd90  ?unmarshal_body@c_RangeScanMode@AdvionObjects@@IEAA_NAEAVc_xml_reader@lmx@@PEAW4elmx_error@4@@Z
    3356  0x706f0  ?unmarshal_body@c_RepeatTimeTrigger@AdvionObjects@@IEAA_NAEAVc_xml_reader@lmx@@PEAW4elmx_error@4@@Z
    3357  0x85920  ?unmarshal_body@c_SIMAnalogOutput@AdvionObjects@@IEAA_NAEAVc_xml_reader@lmx@@PEAW4elmx_error@4@@Z
    3358  0x74ef0  ?unmarshal_body@c_SIMPeakTrigger@AdvionObjects@@IEAA_NAEAVc_xml_reader@lmx@@PEAW4elmx_error@4@@Z
    3359  0x7ebd0  ?unmarshal_body@c_SIMScanMode@AdvionObjects@@IEAA_NAEAVc_xml_reader@lmx@@PEAW4elmx_error@4@@Z
    3360   0x6b60  ?unmarshal_body@c_SamplerMethod@AdvionLCObjects@@IEAA_NAEAVc_xml_reader@lmx@@PEAW4elmx_error@4@@Z
    3361  0x972c0  ?unmarshal_body@c_ScalarChannelChromGraphInfo@AdvionObjects@@IEAA_NAEAVc_xml_reader@lmx@@PEAW4elmx_error@4@@Z
    3362  0x6a6e0  ?unmarshal_body@c_ScanMode@AdvionObjects@@IEAA_NAEAVc_xml_reader@lmx@@PEAW4elmx_error@4@@Z
    3363  0x78d60  ?unmarshal_body@c_SemiQuantIsotope@AdvionObjects@@IEAA_NAEAVc_xml_reader@lmx@@PEAW4elmx_error@4@@Z
    3364  0x99670  ?unmarshal_body@c_SemiQuantSettings@AdvionObjects@@IEAA_NAEAVc_xml_reader@lmx@@PEAW4elmx_error@4@@Z
    3365  0x8aa40  ?unmarshal_body@c_SemiQuantStandard@AdvionObjects@@IEAA_NAEAVc_xml_reader@lmx@@PEAW4elmx_error@4@@Z
    3366  0x6d340  ?unmarshal_body@c_Smoothing@AdvionObjects@@IEAA_NAEAVc_xml_reader@lmx@@PEAW4elmx_error@4@@Z
    3367  0x92870  ?unmarshal_body@c_SpectrumGraphInfo@AdvionObjects@@IEAA_NAEAVc_xml_reader@lmx@@PEAW4elmx_error@4@@Z
    3368  0x838d0  ?unmarshal_body@c_TICAnalogOutput@AdvionObjects@@IEAA_NAEAVc_xml_reader@lmx@@PEAW4elmx_error@4@@Z
    3369  0x95180  ?unmarshal_body@c_TICChromGraphInfo@AdvionObjects@@IEAA_NAEAVc_xml_reader@lmx@@PEAW4elmx_error@4@@Z
    3370  0x72ea0  ?unmarshal_body@c_TICPeakTrigger@AdvionObjects@@IEAA_NAEAVc_xml_reader@lmx@@PEAW4elmx_error@4@@Z
    3371  0x80020  ?unmarshal_body@c_TimeBaselineRemoval@AdvionObjects@@IEAA_NAEAVc_xml_reader@lmx@@PEAW4elmx_error@4@@Z
    3372  0x6fa20  ?unmarshal_body@c_TimeTrigger@AdvionObjects@@IEAA_NAEAVc_xml_reader@lmx@@PEAW4elmx_error@4@@Z
    3373  0x81480  ?unmarshal_body@c_TriangleAnalogOutputSmoothing@AdvionObjects@@IEAA_NAEAVc_xml_reader@lmx@@PEAW4elmx_error@4@@Z
    3374   0xab50  ?unmarshal_body@c_UVAnalogOutput@AdvionLCObjects@@IEAA_NAEAVc_xml_reader@lmx@@PEAW4elmx_error@4@@Z
    3375   0x9ec0  ?unmarshal_body@c_UVChannel@AdvionLCObjects@@IEAA_NAEAVc_xml_reader@lmx@@PEAW4elmx_error@4@@Z
    3376   0xb740  ?unmarshal_body@c_UVChannelAnalogOutput@AdvionLCObjects@@IEAA_NAEAVc_xml_reader@lmx@@PEAW4elmx_error@4@@Z
    3377  0x18eb0  ?unmarshal_body@c_UVChannelScanMode@AdvionLCObjects@@IEAA_NAEAVc_xml_reader@lmx@@PEAW4elmx_error@4@@Z
    3378   0x7840  ?unmarshal_body@c_UVDetectorMethod@AdvionLCObjects@@IEAA_NAEAVc_xml_reader@lmx@@PEAW4elmx_error@4@@Z
    3379   0x8f10  ?unmarshal_body@c_UVRangeScanMode@AdvionLCObjects@@IEAA_NAEAVc_xml_reader@lmx@@PEAW4elmx_error@4@@Z
    3380   0x80f0  ?unmarshal_body@c_UVScanMode@AdvionLCObjects@@IEAA_NAEAVc_xml_reader@lmx@@PEAW4elmx_error@4@@Z
    3381  0x84f00  ?unmarshal_body@c_XICAnalogOutput@AdvionObjects@@IEAA_NAEAVc_xml_reader@lmx@@PEAW4elmx_error@4@@Z
    3382  0x95be0  ?unmarshal_body@c_XICChromGraphInfo@AdvionObjects@@IEAA_NAEAVc_xml_reader@lmx@@PEAW4elmx_error@4@@Z
    3383  0x744d0  ?unmarshal_body@c_XICPeakTrigger@AdvionObjects@@IEAA_NAEAVc_xml_reader@lmx@@PEAW4elmx_error@4@@Z
    3384  0x9a1b0  ?unmarshal_body@c_additionalMasses@c_Analyte@AdvionObjects@@IEAA_NAEAVc_xml_reader@lmx@@PEAW4elmx_error@5@@Z
    3385 0x1334e0  ?unmarshal_body@c_calibration@AdvionObjects@@IEAA_NAEAVc_xml_reader@lmx@@PEAW4elmx_error@4@@Z
    3386 0x132970  ?unmarshal_body@c_calibrationSegment@AdvionObjects@@IEAA_NAEAVc_xml_reader@lmx@@PEAW4elmx_error@4@@Z
    3387  0x668c0  ?unmarshal_body@c_ionSourceOptimization@AdvionObjects@@IEAA_NAEAVc_xml_reader@lmx@@PEAW4elmx_error@4@@Z
    3388 0x134b70  ?unmarshal_body@c_massCalibration@AdvionObjects@@IEAA_NAEAVc_xml_reader@lmx@@PEAW4elmx_error@4@@Z
    3389  0xa37c0  ?unmarshal_body@c_method@AdvionObjects@@IEAA_NAEAVc_xml_reader@lmx@@PEAW4elmx_error@4@@Z
    3390  0x8db00  ?unmarshal_body@c_peakDetection@AdvionObjects@@IEAA_NAEAVc_xml_reader@lmx@@PEAW4elmx_error@4@@Z
    3391 0x129e20  ?unmarshal_body@c_peakList@AdvionObjects@@IEAA_NAEAVc_xml_reader@lmx@@PEAW4elmx_error@4@@Z
    3392  0x9d870  ?unmarshal_body@c_processMethod@AdvionObjects@@IEAA_NAEAVc_xml_reader@lmx@@PEAW4elmx_error@4@@Z
    3393 0x1341a0  ?unmarshal_body@c_speedCalibration@AdvionObjects@@IEAA_NAEAVc_xml_reader@lmx@@PEAW4elmx_error@4@@Z
    3394 0x137b30  ?unmarshal_body@c_tuneParameters@AdvionObjects@@IEAA_NAEAVc_xml_reader@lmx@@PEAW4elmx_error@4@@Z
    3395  0x15100  ?unmarshal_body@c_uvDetectorDeviceInfo@AdvionLCObjects@@IEAA_NAEAVc_xml_reader@lmx@@PEAW4elmx_error@4@@Z
    3396  0x9ac40  ?unset_additionalMasses@c_Analyte@AdvionObjects@@QEAAXXZ
    3397 0x1209a0  ?unset_analogInputs@c_MethodType@AdvionObjects@@QEAAXXZ
    3398 0x1209e0  ?unset_analogOutputs@c_MethodType@AdvionObjects@@QEAAXXZ
    3399   0xf0a0  ?unset_analysisTime@c_AvantSamplerInjection@AdvionLCObjects@@QEAAXXZ
    3400 0x120a20  ?unset_analyteId@c_CalibrationAnalyte@AdvionObjects@@QEAAXXZ
    3401 0x120a60  ?unset_backgroundOptions@c_processMethod@AdvionObjects@@QEAAXXZ
    3402  0x9ebb0  ?unset_backgroundSubtraction@c_QuantitationType@AdvionObjects@@QEAAXXZ
    3403   0x8720  ?unset_bandwidth@c_UVRangeScanMode@AdvionLCObjects@@QEAAXXZ
    3404 0x120aa0  ?unset_baselineRemoval@c_AnalogOutput@AdvionObjects@@QEAAXXZ
    3405 0x1262c0  ?unset_calibration@c_CmsTuneParametersType@AdvionObjects@@QEAAXXZ
    3406 0x120ae0  ?unset_calibrationPath@c_QuantitationType@AdvionObjects@@QEAAXXZ
    3407  0x61b30  ?unset_channelScanMode@c_AdvionUVMethodType@AdvionLCObjects@@QEAAXXZ
    3408  0x1ec60  ?unset_columnDescription@c_GradientPumpType@AdvionLCObjects@@QEAAXXZ
    3409  0x198c0  ?unset_columnIndex@c_AdvionColumnOvenMethodType@AdvionLCObjects@@QEAAXXZ
    3410  0x61b70  ?unset_columnOven@c_AdvionLCMethodType@AdvionLCObjects@@QEAAXXZ
    3411 0x131cd0  ?unset_commonBaseline@c_Peak@AdvionObjects@@QEAAXXZ
    3412  0x77d30  ?unset_concentration@c_CalibrationAnalyte@AdvionObjects@@QEAAXXZ
    3413  0x9ad00  ?unset_concentrationUnits@c_Analyte@AdvionObjects@@QEAAXXZ
    3414  0x61bb0  ?unset_contactClosureIn@c_GradientPumpType@AdvionLCObjects@@QEAAXXZ
    3415 0x120b20  ?unset_contactClosureIn@c_MethodType@AdvionObjects@@QEAAXXZ
    3416 0x120b60  ?unset_contactClosuresOut@c_MethodType@AdvionObjects@@QEAAXXZ
    3417  0x61bf0  ?unset_cooling@c_AvantSamplerMethodType@AdvionLCObjects@@QEAAXXZ
    3418 0x120ba0  ?unset_currentFilter@c_GraphInfo@AdvionObjects@@QEAAXXZ
    3419  0x909e0  ?unset_delta@c_GraphInfo@AdvionObjects@@QEAAXXZ
    3420 0x120be0  ?unset_deltaBackgroundParameters@c_RangeScanMode@AdvionObjects@@QEAAXXZ
    3421  0x65cf0  ?unset_description@c_ionSourceOptimization@AdvionObjects@@QEAAXXZ
    3422  0x61c30  ?unset_diverterValve@c_AdvionColumnOvenMethodType@AdvionLCObjects@@QEAAXXZ
    3423  0x61c70  ?unset_drawPositionOffset@c_AvantSamplerInjection@AdvionLCObjects@@QEAAXXZ
    3424  0x197f0  ?unset_enableAnalysis@c_AdvionColumnOvenMethodType@AdvionLCObjects@@QEAAXXZ
    3425  0x8f710  ?unset_enableMultiple@c_BackgroundOptions@AdvionObjects@@QEAAXXZ
    3426 0x131d10  ?unset_endIndex@c_IntegrationBaseline@AdvionObjects@@QEAAXXZ
    3427  0x96160  ?unset_endMass@c_BasePeakChromGraphInfo@AdvionObjects@@QEAAXXZ
    3428  0x955b0  ?unset_endMass@c_XICChromGraphInfo@AdvionObjects@@QEAAXXZ
    3429  0x921b0  ?unset_endRetentionTime@c_SpectrumGraphInfo@AdvionObjects@@QEAAXXZ
    3430  0x7b8a0  ?unset_endTime@c_BackgroundSpectrum@AdvionObjects@@QEAAXXZ
    3431  0x909a0  ?unset_endX@c_GraphInfo@AdvionObjects@@QEAAXXZ
    3432  0x1f040  ?unset_equilibrationTime@c_GradientPumpType@AdvionLCObjects@@QEAAXXZ
    3433  0x8e560  ?unset_estimateWidth@c_GlobalPeakDetection@AdvionObjects@@QEAAXXZ
    3434  0x8e450  ?unset_excludeNoise@c_GlobalPeakDetection@AdvionObjects@@QEAAXXZ
    3435  0x13f20  ?unset_hasUVLamp@c_uvDetectorDeviceInfo@AdvionLCObjects@@QEAAXXZ
    3436  0x13f60  ?unset_hasVisibleLamp@c_uvDetectorDeviceInfo@AdvionLCObjects@@QEAAXXZ
    3437 0x131d50  ?unset_heightAboveBaseline@c_Peak@AdvionObjects@@QEAAXXZ
    3438 0x120c20  ?unset_id@c_AnalyteSettings@AdvionObjects@@QEAAXXZ
    3439 0x120c60  ?unset_id@c_CalibrationStandard@AdvionObjects@@QEAAXXZ
    3440 0x120ca0  ?unset_id@c_QuantScanMode@AdvionObjects@@QEAAXXZ
    3441  0x96cb0  ?unset_index@c_ScalarChannelChromGraphInfo@AdvionObjects@@QEAAXXZ
    3442  0x9edd0  ?unset_instrumentType@c_QuantitationType@AdvionObjects@@QEAAXXZ
    3443  0x9af20  ?unset_intensityMetric@c_Analyte@AdvionObjects@@QEAAXXZ
    3444 0x120ce0  ?unset_internalStandardId@c_AnalyteSettings@AdvionObjects@@QEAAXXZ
    3445  0x94220  ?unset_isFullRetentionTime@c_ParentChromGraphInfo@AdvionObjects@@QEAAXXZ
    3446  0x921f0  ?unset_isFullRetentionTime@c_SpectrumGraphInfo@AdvionObjects@@QEAAXXZ
    3447  0x90920  ?unset_isStacked@c_GraphInfo@AdvionObjects@@QEAAXXZ
    3448  0x92130  ?unset_isStick@c_SpectrumGraphInfo@AdvionObjects@@QEAAXXZ
    3449  0x9eaf0  ?unset_isotopeDilution@c_QuantitationType@AdvionObjects@@QEAAXXZ
    3450  0x9eab0  ?unset_isotopeRatio@c_QuantitationType@AdvionObjects@@QEAAXXZ
    3451 0x120d20  ?unset_manualHeight@c_IntegrationPoint@AdvionObjects@@QEAAXXZ
    3452 0x142860  ?unset_massCalibration@c_CmsTuneParametersType@AdvionObjects@@QEAAXXZ
    3453  0x9aaa0  ?unset_massSpan@c_Analyte@AdvionObjects@@QEAAXXZ
    3454  0x14230  ?unset_maxBandwidth@c_uvDetectorDeviceInfo@AdvionLCObjects@@QEAAXXZ
    3455  0x13ff0  ?unset_maxNumChannels@c_uvDetectorDeviceInfo@AdvionLCObjects@@QEAAXXZ
    3456  0x14270  ?unset_maxRefBandwidth@c_uvDetectorDeviceInfo@AdvionLCObjects@@QEAAXXZ
    3457  0x14070  ?unset_maxWavelength@c_uvDetectorDeviceInfo@AdvionLCObjects@@QEAAXXZ
    3458  0x8e410  ?unset_maxWidth@c_GlobalPeakDetection@AdvionObjects@@QEAAXXZ
    3459 0x131d90  ?unset_maximumIndex@c_Peak@AdvionObjects@@QEAAXXZ
    3460  0x141f0  ?unset_minBandwidth@c_uvDetectorDeviceInfo@AdvionLCObjects@@QEAAXXZ
    3461  0x14030  ?unset_minWavelength@c_uvDetectorDeviceInfo@AdvionLCObjects@@QEAAXXZ
    3462 0x120d60  ?unset_name@c_Analyte@AdvionObjects@@QEAAXXZ
    3463  0x61cb0  ?unset_needleHeight@c_AvantSamplerInjection@AdvionLCObjects@@QEAAXXZ
    3464  0x8e520  ?unset_numPeakLabels@c_GlobalPeakDetection@AdvionObjects@@QEAAXXZ
    3465 0x120da0  ?unset_parentChromInfo@c_processMethod@AdvionObjects@@QEAAXXZ
    3466 0x120de0  ?unset_parentSpectrumInfo@c_processMethod@AdvionObjects@@QEAAXXZ
    3467 0x120e20  ?unset_peakDetection@c_AnalyteSettings@AdvionObjects@@QEAAXXZ
    3468  0x61cf0  ?unset_pump@c_AdvionLCMethodType@AdvionLCObjects@@QEAAXXZ
    3469  0x1ee30  ?unset_pumpASolvent@c_GradientPumpType@AdvionLCObjects@@QEAAXXZ
    3470  0x1f000  ?unset_pumpBSolvent@c_GradientPumpType@AdvionLCObjects@@QEAAXXZ
    3471  0x9ea70  ?unset_qcOnly@c_QuantitationType@AdvionObjects@@QEAAXXZ
    3472 0x120e60  ?unset_quantitation@c_MethodType@AdvionObjects@@QEAAXXZ
    3473  0x9eb70  ?unset_quantitation@c_QuantitationType@AdvionObjects@@QEAAXXZ
    3474  0x61d30  ?unset_rangeScanMode@c_AdvionUVMethodType@AdvionLCObjects@@QEAAXXZ
    3475   0x98a0  ?unset_refBandwidth@c_UVChannel@AdvionLCObjects@@QEAAXXZ
    3476   0x87e0  ?unset_refBandwidth@c_UVRangeScanMode@AdvionLCObjects@@QEAAXXZ
    3477   0x9820  ?unset_refEnabled@c_UVChannel@AdvionLCObjects@@QEAAXXZ
    3478   0x8760  ?unset_refEnabled@c_UVRangeScanMode@AdvionLCObjects@@QEAAXXZ
    3479   0x9860  ?unset_refWavelength@c_UVChannel@AdvionLCObjects@@QEAAXXZ
    3480   0x87a0  ?unset_refWavelength@c_UVRangeScanMode@AdvionLCObjects@@QEAAXXZ
    3481 0x120ea0  ?unset_referenceAnalyteId@c_AnalyteSettings@AdvionObjects@@QEAAXXZ
    3482  0x8f790  ?unset_removeFromChromatograms@c_BackgroundOptions@AdvionObjects@@QEAAXXZ
    3483  0x8f750  ?unset_removeFromSpectra@c_BackgroundOptions@AdvionObjects@@QEAAXXZ
    3484  0xa0e00  ?unset_removeNoise@c_MethodType@AdvionObjects@@QEAAXXZ
    3485  0x9ac80  ?unset_retentionTime@c_Analyte@AdvionObjects@@QEAAXXZ
    3486  0x9acc0  ?unset_retentionTimeSpan@c_Analyte@AdvionObjects@@QEAAXXZ
    3487  0xa0bd0  ?unset_runTime@c_MethodType@AdvionObjects@@QEAAXXZ
    3488  0x8b400  ?unset_sampleListFileIndex@c_AnalyteSettings@AdvionObjects@@QEAAXXZ
    3489  0x61d70  ?unset_sampler@c_AdvionLCMethodType@AdvionLCObjects@@QEAAXXZ
    3490 0x120ee0  ?unset_scanModeId@c_AnalyteSettings@AdvionObjects@@QEAAXXZ
    3491  0x82010  ?unset_scanModeIndex@c_AnalogOutput@AdvionObjects@@QEAAXXZ
    3492  0x715c0  ?unset_scanModeIndex@c_PeakTrigger@AdvionObjects@@QEAAXXZ
    3493 0x120f20  ?unset_semiQuantSettings@c_QuantitationType@AdvionObjects@@QEAAXXZ
    3494  0x8e490  ?unset_sigma@c_GlobalPeakDetection@AdvionObjects@@QEAAXXZ
    3495 0x120f60  ?unset_smoothing@c_AnalogOutput@AdvionObjects@@QEAAXXZ
    3496 0x120fa0  ?unset_smoothing@c_MethodType@AdvionObjects@@QEAAXXZ
    3497  0x1ebe0  ?unset_solventADescription@c_GradientPumpType@AdvionLCObjects@@QEAAXXZ
    3498  0x1ec20  ?unset_solventBDescription@c_GradientPumpType@AdvionLCObjects@@QEAAXXZ
    3499  0x81f80  ?unset_source@c_AnalogOutput@AdvionObjects@@QEAAXXZ
    3500  0x71530  ?unset_source@c_PeakTrigger@AdvionObjects@@QEAAXXZ
    3501  0x65c20  ?unset_sourceVoltage@c_ionSourceOptimization@AdvionObjects@@QEAAXXZ
    3502  0x65cb0  ?unset_sourceVoltageDynamic@c_ionSourceOptimization@AdvionObjects@@QEAAXXZ
    3503 0x120fe0  ?unset_sourceVoltageOffset@c_MassOfInterest@AdvionObjects@@QEAAXXZ
    3504  0x9eb30  ?unset_standardAddition@c_QuantitationType@AdvionObjects@@QEAAXXZ
    3505 0x131dd0  ?unset_startIndex@c_IntegrationBaseline@AdvionObjects@@QEAAXXZ
    3506  0x96120  ?unset_startMass@c_BasePeakChromGraphInfo@AdvionObjects@@QEAAXXZ
    3507  0x95570  ?unset_startMass@c_XICChromGraphInfo@AdvionObjects@@QEAAXXZ
    3508 0x121020  ?unset_startRetentionTime@c_IntegrationPoint@AdvionObjects@@QEAAXXZ
    3509  0x92170  ?unset_startRetentionTime@c_SpectrumGraphInfo@AdvionObjects@@QEAAXXZ
    3510  0x7b860  ?unset_startTime@c_BackgroundSpectrum@AdvionObjects@@QEAAXXZ
    3511  0x6be30  ?unset_startTime@c_MassOfInterest@AdvionObjects@@QEAAXXZ
    3512  0x90960  ?unset_startX@c_GraphInfo@AdvionObjects@@QEAAXXZ
    3513  0x1eba0  ?unset_stopPumpAtEnd@c_GradientPumpType@AdvionLCObjects@@QEAAXXZ
    3514  0x6bec0  ?unset_stopTime@c_MassOfInterest@AdvionObjects@@QEAAXXZ
    3515  0x141b0  ?unset_supportsMultipleBandwidths@c_uvDetectorDeviceInfo@AdvionLCObjects@@QEAAXXZ
    3516  0x14170  ?unset_supportsMultipleScanRates@c_uvDetectorDeviceInfo@AdvionLCObjects@@QEAAXXZ
    3517  0x14130  ?unset_supportsReferenceWavelength@c_uvDetectorDeviceInfo@AdvionLCObjects@@QEAAXXZ
    3518 0x121060  ?unset_targetRetentionTime@c_GlobalPeakDetection@AdvionObjects@@QEAAXXZ
    3519  0x195e0  ?unset_temperatureSetpoint@c_AdvionColumnOvenMethodType@AdvionLCObjects@@QEAAXXZ
    3520  0x19830  ?unset_temperatureTolerance@c_AdvionColumnOvenMethodType@AdvionLCObjects@@QEAAXXZ
    3521 0x1210a0  ?unset_threshold@c_GlobalPeakDetection@AdvionObjects@@QEAAXXZ
    3522  0x62e70  ?unset_transferLineTemperature@c_ApciSource@AdvionObjects@@QEAAXXZ
    3523   0xebc0  ?unset_trayType@c_AvantSamplerInjection@AdvionLCObjects@@QEAAXXZ
    3524  0x898e0  ?unset_type@c_CalibrationStandard@AdvionObjects@@QEAAXXZ
    3525   0xf0e0  ?unset_useAirSegment@c_AvantSamplerInjection@AdvionLCObjects@@QEAAXXZ
    3526  0x99080  ?unset_useDefaultStandards@c_SemiQuantSettings@AdvionObjects@@QEAAXXZ
    3527   0xf120  ?unset_useHeadspace@c_AvantSamplerInjection@AdvionLCObjects@@QEAAXXZ
    3528  0x7d560  ?unset_useTwoIonSourceOptimizations@c_RangeScanMode@AdvionObjects@@QEAAXXZ
    3529  0x8e5a0  ?unset_userModified@c_GlobalPeakDetection@AdvionObjects@@QEAAXXZ
    3530  0x61db0  ?unset_uvDetector@c_AdvionLCMethodType@AdvionLCObjects@@QEAAXXZ
    3531  0x140b0  ?unset_uvMaxWavelength@c_uvDetectorDeviceInfo@AdvionLCObjects@@QEAAXXZ
    3532  0x61df0  ?unset_valveWash@c_AvantSamplerMethodType@AdvionLCObjects@@QEAAXXZ
    3533  0x17760  ?unset_version@c_AdvionLCMethod@AdvionLCObjects@@QEAAXXZ
    3534  0x65ae0  ?unset_version@c_ionSourceOptimization@AdvionObjects@@QEAAXXZ
    3535  0xa2d20  ?unset_version@c_method@AdvionObjects@@QEAAXXZ
    3536  0x8d140  ?unset_version@c_peakDetection@AdvionObjects@@QEAAXXZ
    3537 0x129100  ?unset_version@c_peakList@AdvionObjects@@QEAAXXZ
    3538  0x9cae0  ?unset_version@c_processMethod@AdvionObjects@@QEAAXXZ
    3539 0x137090  ?unset_version@c_tuneParameters@AdvionObjects@@QEAAXXZ
    3540  0x13ed0  ?unset_version@c_uvDetectorDeviceInfo@AdvionLCObjects@@QEAAXXZ
    3541  0x140f0  ?unset_visMinWavelength@c_uvDetectorDeviceInfo@AdvionLCObjects@@QEAAXXZ
    3542  0x7c830  ?unset_width@c_BoxFilter@AdvionObjects@@QEAAXXZ
    3543 0x131e10  ?unset_widthUsed@c_peakList@AdvionObjects@@QEAAXXZ

Sections:
Idx Name          Size     VMA              Type
  0 .text         00169215 0000000180001000 TEXT
  1 .rdata        000edc44 000000018016b000 DATA
  2 .data         00008e00 0000000180259000 DATA
  3 .pdata        0002b1d0 0000000180266000 DATA
  4 .gfids        0000003c 0000000180292000 DATA
  5 .rsrc         0000050c 0000000180293000 DATA
  6 .reloc        00003088 0000000180294000 DATA

SYMBOL TABLE:
